(dp0
Va
p1
I1
sVc
p2
I3
sVb
p3
I2
sVe
p4
I5
sVd
p5
I4
sVg
p6
I6
sVi
p7
I8
sVh
p8
I7
sVk
p9
I10
sVj
p10
I9
sVm
p11
I11
sVo
p12
I13
sVn
p13
I12
sVq
p14
I15
sVp
p15
I14
sVr
p16
I16
sVu
p17
I17
sVw
p18
I19
sVv
p19
I18
sVx
p20
I20
s.