(dp0
V\u8000
p1
I4193
sV\u6d89
p2
I2816
sV\u8c08
p3
I5036
sV\u4f0a
p4
I141
sV\u8599
p5
I4655
sV\u4e9f
p6
I85
sV\u6d1e
p7
I2766
sV\u7322
p8
I3212
sV\u60ab
p9
I1682
sV\u7f2a
p10
I4103
sV\u6cb3
p11
I2713
sV\u4e34
p12
I37
sV\u72b7
p13
I3174
sV\u5438
p14
I648
sV\u5a3c
p15
I1107
sV\u7ebf
p16
I4011
sV\u53cd
p17
I585
sV\u724c
p18
I3140
sV\u96cf
p19
I5821
sV\u59d1
p20
I1071
sV\u65d9
p21
I2150
sV\u5362
p22
I538
sV\u77e5
p23
I3569
sV\u9664
p24
I5777
sV\u5f6a
p25
I1551
sV\u89f1
p26
I4925
sV\u52f7
p27
I489
sV\u95f9
p28
I5712
sV\u777a
p29
I3541
sV\u5eff
p30
I1510
sV\u8986
p31
I4902
sV\u8f8a
p32
I5311
sV\u5890
p33
I963
sV\u5e94
p34
I1476
sV\u8e1f
p35
I5222
sV\u5121
p36
I307
sV\u76a4
p37
I3466
sV\u5d29
p38
I1356
sV\u82ac
p39
I4413
sV\u51b6
p40
I369
sV\u9abc
p41
I6095
sV\u8d49
p42
I5145
sV\u6e5f
p43
I2899
sV\u56e4
p44
I838
sV\u5ce8
p45
I1335
sV\u62ec
p46
I1896
sV\u8c73
p47
I5091
sV\u6ef4
p48
I2948
sV\u987b
p49
I5917
sV\u5b7d
p50
I1181
sV\u9e7f
p51
I6259
sV\u6c89
p52
I2691
sV\u4e0a
p53
I10
sV\u540e
p54
I625
sV\u7891
p55
I3616
sV\u9910
p56
I5978
sV\u6016
p57
I1623
sV\u8499
p58
I4594
sV\u67af
p59
I2335
sV\u4f34
p60
I164
sV\u73b7
p61
I3251
sV\u9036
p62
I5404
sV\u79bb
p63
I3693
sV\u7fbf
p64
I4167
sV\u52cd
p65
I483
sV\u58d1
p66
I977
sV\u7950
p67
I3655
sV\u7f54
p68
I4123
sV\u76e5
p69
I3494
sV\u5e6a
p70
I1456
sV\u88f1
p71
I4864
sV\u53f7
p72
I613
sV\u7076
p73
I3033
sV\u59fb
p74
I1085
sV\u5fff
p75
I1613
sV\u8282
p76
I4395
sV\u538c
p77
I561
sV\u770f
p78
I3510
sV\u948e
p79
I5581
sV\u8317
p80
I4462
sV\u891b
p81
I4877
sV\u5021
p82
I253
sV\u71a0
p83
I3106
sV\u9523
p84
I5647
sV\u7a3d
p85
I3732
sV\u62c2
p86
I1867
sV\u8c49
p87
I5081
sV\u514b
p88
I318
sV\u574f
p89
I874
sV\u9e55
p90
I6236
sV\u80d6
p91
I4266
sV\u86da
p92
I4726
sV\u51e0
p93
I385
sV\u5de8
p94
I1399
sV\u876f
p95
I4769
sV\u9f7f
p96
I6322
sV\u8200
p97
I4342
sV\u6585
p98
I2107
sV\u8404
p99
I4554
sV\u6316
p100
I1914
sV\u56a3
p101
I825
sV\u7b26
p102
I3798
sV\u62ab
p103
I1859
sV\u872e
p104
I4753
sV\u6eb3
p105
I2921
sV\u70b7
p106
I3053
sV\u953a
p107
I5658
sV\u6240
p108
I1803
sV\u6444
p109
I2018
sV\u92cb
p110
I5567
sV\u704c
p111
I3025
sV\u94cf
p112
I5609
sV\u67d9
p113
I2357
sV\u4f5e
p114
I183
sV\u5162
p115
I327
sV\u5b66
p116
I1174
sV\u7fe9
p117
I4185
sV\u81ed
p118
I4336
sV\u8bf1
p119
I5017
sV\u4ef3
p120
I133
sV\u8df5
p121
I5210
sV\u757a
p122
I3393
sV\u7f7e
p123
I4145
sV\u6603
p124
I2170
sV\u6807
p125
I2377
sV\u4e88
p126
I72
sV\u8d8a
p127
I5179
sV\u740f
p128
I3278
sV\u9992
p129
I6021
sV\u5c94
p130
I1309
sV\u8017
p131
I4206
sV\u6698
p132
I2229
sV\u8c1f
p133
I5056
sV\u5321
p134
I505
sV\u5f29
p135
I1531
sV\u7ea8
p136
I3990
sV\u6d35
p137
I2779
sV\u61c2
p138
I1761
sV\u524b
p139
I438
sV\u914d
p140
I5502
sV\u9b51
p141
I6130
sV\u79d2
p142
I3703
sV\u9d55
p143
I6181
sV\u83d6
p144
I4538
sV\u6a5b
p145
I2545
sV\u6c5f
p146
I2670
sV\u8fde
p147
I5355
sV\u5ee8
p148
I1505
sV\u60ec
p149
I1707
sV\u76f8
p150
I3500
sV\u9a7b
p151
I6053
sV\u597d
p152
I1042
sV\u8300
p153
I4448
sV\u6485
p154
I2036
sV\u6e89
p155
I2909
sV\u8f08
p156
I5272
sV\u560e
p157
I800
sV\u7a91
p158
I3754
sV\u9b10
p159
I6111
sV\u7c95
p160
I3914
sV\u6216
p161
I1784
sV\u57a3
p162
I907
sV\u94a5
p163
I5593
sV\u7c2a
p164
I3894
sV\u65af
p165
I2127
sV\u6fb3
p166
I2995
sV\u8832
p167
I4805
sV\u9e3e
p168
I6220
sV\u89c7
p169
I4908
sV\u4ec9
p170
I111
sV\u6f48
p171
I2970
sV\u714c
p172
I3086
sV\u7b50
p173
I3813
sV\u66d9
p174
I2238
sV\u895c
p175
I4892
sV\u4e5e
p176
I61
sV\u72e1
p177
I3190
sV\u7ee9
p178
I4047
sV\u80ed
p179
I4278
sV\u666e
p180
I2211
sV\u4ff3
p181
I237
sV\u96f9
p182
I5833
sV\u5bfb
p183
I1246
sV\u6907
p184
I2462
sV\u4f88
p185
I195
sV\u8c8a
p186
I5098
sV\u518c
p187
I350
sV\u7f13
p188
I4082
sV\u699c
p189
I2500
sV\u8d1f
p190
I5106
sV\u73a0
p191
I3242
sV\u9927
p192
I5983
sV\u6a31
p193
I2536
sV\u8bb0
p194
I4962
sV\u5ebe
p195
I1496
sV\u8e49
p196
I5239
sV\u6cca
p197
I2726
sV\u904d
p198
I5413
sV\u76ce
p199
I3481
sV\u5f53
p200
I1541
sV\u6157
p201
I1740
sV\u53e0
p202
I594
sV\u7763
p203
I3534
sV\u90e2
p204
I5473
sV\u55e4
p205
I792
sV\u7967
p206
I3670
sV\u9ae6
p207
I6101
sV\u836b
p208
I4504
sV\u8f73
p209
I5292
sV\u9177
p210
I5518
sV\u6581
p211
I2106
sV\u8204
p212
I4345
sV\u6989
p213
I2495
sV\u7b95
p214
I3843
sV\u631a
p215
I1915
sV\u5ea7
p216
I1488
sV\u68b3
p217
I2435
sV\u5e3c
p218
I1443
sV\u7abf
p219
I3766
sV\u80c3
p220
I4261
sV\u6848
p221
I2405
sV\u5dd1
p222
I1390
sV\u98d3
p223
I5960
sV\u8058
p224
I4227
sV\u73e5
p225
I3265
sV\u9264
p226
I5563
sV\u5d66
p227
I1371
sV\u79e9
p228
I3711
sV\u5b6a
p229
I1176
sV\u8bf5
p230
I5021
sV\u56f7
p231
I844
sV\u5cfb
p232
I1340
sV\u8782
p233
I4774
sV\u5c90
p234
I1307
sV\u8c1b
p235
I5054
sV\u6e9c
p236
I2913
sV\u74a0
p237
I3325
sV\u5929
p238
I1004
sV\u672d
p239
I2275
sV\u86ac
p240
I4717
sV\u6d31
p241
I2776
sV\u4fb2
p242
I213
sV\u90b8
p243
I5455
sV\u59be
p244
I1066
sV\u8345
p245
I4479
sV\u4e47
p246
I47
sV\u6dc6
p247
I2844
sV\u71ce
p248
I3113
sV\u6c5b
p249
I2666
sV\u89de
p250
I4920
sV\u52e4
p251
I487
sV\u846b
p252
I4582
sV\u826f
p253
I4389
sV\u6cf0
p254
I2748
sV\u9677
p255
I5786
sV\u5179
p256
I342
sV\u7efc
p257
I4061
sV\u9a7f
p258
I6057
sV\u8500
p259
I4621
sV\u8304
p260
I4452
sV\u5e12
p261
I1421
sV\u7a95
p262
I3756
sV\u621a
p263
I1786
sV\u7622
p264
I3439
sV\u7c26
p265
I3892
sV\u65ab
p266
I2125
sV\u77b7
p267
I3559
sV\u5f3c
p268
I1538
sV\u8fc7
p269
I5342
sV\u7b54
p270
I3816
sV\u9560
p271
I5680
sV\u5c66
p272
I1293
sV\u5a6a
p273
I1116
sV\u6e72
p274
I2902
sV\u7476
p275
I3310
sV\u727a
p276
I3161
sV\u9efd
p277
I6301
sV\u5bff
p278
I1248
sV\u787e
p279
I3609
sV\u8682
p280
I4705
sV\u578c
p281
I900
sV\u9e92
p282
I6266
sV\u8717
p283
I4747
sV\u4e1d
p284
I25
sV\u6f9c
p285
I2990
sV\u75a0
p286
I3403
sV\u9123
p287
I5491
sV\u662d
p288
I2187
sV\u87ac
p289
I4779
sV\u4eb2
p290
I98
sV\u6a35
p291
I2537
sV\u8bb4
p292
I4965
sV\u7039
p293
I3022
sV\u964d
p294
I5769
sV\u534f
p295
I526
sV\u7ed2
p296
I4028
sV\u53e4
p297
I596
sV\u9ce6
p298
I6175
sV\u59e8
p299
I1081
sV\u67ec
p300
I2365
sV\u836f
p301
I4506
sV\u6df0
p302
I2858
sV\u5e7d
p303
I1465
sV\u7ffc
p304
I4191
sV\u6781
p305
I2315
sV\u8004
p306
I4196
sV\u6b89
p307
I2606
sV\u7f91
p308
I4154
sV\u9e10
p309
I6198
sV\u5d12
p310
I1347
sV\u4e9b
p311
I84
sV\u611a
p312
I1725
sV\u52a3
p313
I465
sV\u5ca7
p314
I1316
sV\u7f26
p315
I4099
sV\u60af
p316
I1685
sV\u4e30
p317
I35
sV\u8d32
p318
I5124
sV\u5238
p319
I430
sV\u7ebb
p320
I4008
sV\u5c3c
p321
I1269
sV\u90cf
p322
I5465
sV\u7e50
p323
I3973
sV\u9ad3
p324
I6099
sV\u8258
p325
I4381
sV\u6ddd
p326
I2851
sV\u71e5
p327
I3117
sV\u5f66
p328
I1548
sV\u636e
p329
I1949
sV\u7b7e
p330
I3833
sV\u8f86
p331
I5307
sV\u548c
p332
I681
sV\u5e90
p333
I1473
sV\u9d92
p334
I6184
sV\u6298
p335
I1850
sV\u6f31
p336
I2965
sV\u88b4
p337
I4848
sV\u5bbe
p338
I1219
sV\u65c2
p339
I2136
sV\u6fc6
p340
I3001
sV\u69ca
p341
I2513
sV\u954d
p342
I5669
sV\u504f
p343
I266
sV\u9f51
p344
I6319
sV\u5a53
p345
I1111
sV\u9955
p346
I5988
sV\u6e5b
p347
I2898
sV\u8bde
p348
I5002
sV\u56e0
p349
I836
sV\u866b
p350
I4695
sV\u72f8
p351
I3201
sV\u987f
p352
I5920
sV\u8700
p353
I4736
sV\u520e
p354
I408
sV\u7e91
p355
I3980
sV\u9f10
p356
I6306
sV\u9914
p357
I5979
sV\u8299
p358
I4402
sV\u4f9b
p359
I201
sV\u7422
p360
I3282
sV\u67ab
p361
I2332
sV\u4f30
p362
I162
sV\u6bb3
p363
I2616
sV\u8c32
p364
I5073
sV\u9636
p365
I5755
sV\u6740
p366
I2283
sV\u6144
p367
I1733
sV\u6b48
p368
I2583
sV\u54cd
p369
I711
sV\u754c
p370
I3377
sV\u91cf
p371
I5557
sV\u7f50
p372
I4121
sV\u58d5
p373
I978
sV\u7954
p374
I3657
sV\u62d9
p375
I1884
sV\u6cdd
p376
I2735
sV\u9760
p377
I5865
sV\u5462
p378
I665
sV\u9164
p379
I5510
sV\u626e
p380
I1828
sV\u6c72
p381
I2678
sV\u55f7
p382
I795
sV\u5ffb
p383
I1610
sV\u707a
p384
I3034
sV\u59ff
p385
I1086
sS'<unk>'
p386
I2
sV\u8482
p387
I4590
sV\u770b
p388
I3509
sV\u5f90
p389
I1573
sV\u8517
p390
I4626
sV\u6398
p391
I1965
sV\u5a29
p392
I1102
sV\u7ba8
p393
I3850
sV\u642d
p394
I2014
sV\u8fb0
p395
I5333
sV\u7239
p396
I3133
sV\u5abe
p397
I1132
sV\u64c2
p398
I2054
sV\u72ce
p399
I3181
sV\u9e51
p400
I6233
sV\u80da
p401
I4268
sV\u57e0
p402
I924
sV\u94e2
p403
I5618
sV\u51e4
p404
I387
sV\u9ee6
p405
I6296
sV\u5be8
p406
I1240
sV\u65ec
p407
I2160
sV\u4e71
p408
I67
sV\u997f
p409
I6009
sV\u7b8d
p410
I3838
sV\u5d0e
p411
I1345
sV\u9010
p412
I5386
sV\u9614
p413
I5736
sV\u5ca3
p414
I1315
sV\u7126
p415
I3081
sV\u6eaf
p416
I2918
sV\u8d2e
p417
I5120
sV\u5c38
p418
I1266
sV\u76bf
p419
I3472
sV\u6840
p420
I2400
sV\u6e44
p421
I2889
sV\u82c7
p422
I4425
sV\u6448
p423
I2022
sV\u98cb
p424
I5955
sV\u9ecf
p425
I6286
sV\u51d1
p426
I381
sV\u94d3
p427
I5610
sV\u57d5
p428
I919
sV\u6dd9
p429
I2850
sV\u4f5a
p430
I180
sV\u7fe5
p431
I4183
sV\u9e64
p432
I6246
sV\u576a
p433
I888
sV\u8bed
p434
I5013
sV\u6d6e
p435
I2808
sV\u6372
p436
I1951
sV\u50fb
p437
I298
sV\u56ff
p438
I849
sV\u6c03
p439
I2642
sV\u5f25
p440
I1528
sV\u7ea4
p441
I3986
sV\u74a8
p442
I3327
sV\u6735
p443
I2280
sV\u9cb8
p444
I6161
sV\u8941
p445
I4888
sV\u6bc2
p446
I2623
sV\u8549
p447
I4639
sV\u9b4d
p448
I6128
sV\u5453
p449
I659
sV\u7267
p450
I3153
sV\u54e8
p451
I720
sV\u886b
p452
I4822
sV\u8e6f
p453
I5251
sV\u60f0
p454
I1711
sV\u8473
p455
I4586
sV\u66f4
p456
I2249
sV\u9a77
p457
I6049
sV\u72fc
p458
I3202
sV\u6881
p459
I2422
sV\u6e85
p460
I2906
sV\u7a8d
p461
I3753
sV\u5212
p462
I410
sV\u6816
p463
I2386
sV\u8c99
p464
I5101
sV\u6e1a
p465
I2873
sV\u829d
p466
I4405
sV\u641e
p467
I2010
sV\u98a1
p468
I5946
sV\u94a9
p469
I5596
sV\u8c2e
p470
I5070
sV\u8232
p471
I4364
sV\u533c
p472
I513
sV\u77bf
p473
I3561
sV\u8dc3
p474
I5190
sV\u4ec5
p475
I108
sV\u83c7
p476
I4534
sV\u6548
p477
I2082
sV\u7b4c
p478
I3811
sV\u8d58
p479
I5158
sV\u835c
p480
I4492
sV\u5a62
p481
I1115
sV\u7ee5
p482
I4043
sV\u566a
p483
I816
sV\u4fef
p484
I235
sV\u80f1
p485
I4280
sV\u51fb
p486
I397
sV\u747e
p487
I3312
sV\u4f84
p488
I194
sV\u6307
p489
I1909
sV\u8086
p490
I4234
sV\u868a
p491
I4707
sV\u5b8c
p492
I1190
sV\u7f0f
p493
I4079
sV\u7513
p494
I3350
sV\u6d98
p495
I2823
sV\u5821
p496
I938
sV\u7fa4
p497
I4160
sV\u5429
p498
I640
sV\u8bac
p499
I4958
sV\u6635
p500
I2190
sV\u723d
p501
I3135
sV\u6ac2
p502
I2559
sV\u60c6
p503
I1692
sV\u594b
p504
I1022
sV\u9051
p505
I5416
sV\u72d2
p506
I3183
sV\u9655
p507
I5772
sV\u675f
p508
I2299
sV\u7d63
p509
I3954
sV\u5fe4
p510
I1605
sV\u90e6
p511
I5475
sV\u896b
p512
I4896
sV\u96ea
p513
I5828
sV\u8f6f
p514
I5288
sV\u67f4
p515
I2370
sV\u5c79
p516
I1298
sV\u527d
p517
I454
sV\u6b81
p518
I2600
sV\u8a00
p519
I4928
sV\u6d85
p520
I2814
sV\u8c04
p521
I5034
sV\u6789
p522
I2318
sV\u7391
p523
I3238
sV\u5112
p524
I304
sV\u8f99
p525
I5324
sV\u819d
p526
I4324
sV\u752a
p527
I3360
sV\u5e38
p528
I1441
sV\u503c
p529
I260
sV\u74bf
p530
I3328
sV\u973e
p531
I5857
sV\u8ec3
p532
I5268
sV\u9ccf
p533
I6168
sV\u53d1
p534
I586
sV\u7be1
p535
I3871
sV\u5962
p536
I1033
sV\u5366
p537
I540
sV\u77e9
p538
I3571
sV\u9668
p539
I5779
sV\u6f6e
p540
I2980
sV\u83f1
p541
I4545
sV\u54ff
p542
I730
sV\u8386
p543
I4512
sV\u7a0b
p544
I3720
sV\u7c0f
p545
I3888
sV\u9192
p546
I5535
sV\u4f19
p547
I150
sV\u6e98
p548
I2912
sV\u821b
p549
I4353
sV\u7aa0
p550
I3762
sV\u9e23
p551
I6204
sV\u7ca4
p552
I3920
sV\u4fae
p553
I211
sV\u82b0
p554
I4417
sV\u5bb6
p555
I1215
sV\u9eb8
p556
I6278
sV\u8b41
p557
I4941
sV\u4e43
p558
I45
sV\u8d45
p559
I5142
sV\u63c6
p560
I1983
sV\u8749
p561
I4761
sV\u65ca
p562
I2141
sV\u5c4f
p563
I1282
sV\u7fce
p564
I4172
sV\u9555
p565
I5672
sV\u4ed8
p566
I122
sV\u625b
p567
I1818
sV\u8dda
p568
I5199
sV\u5ae0
p569
I1143
sV\u5ce4
p570
I1332
sV\u93e6
p571
I5572
sV\u95ea
p572
I5698
sV\u9877
p573
I5913
sV\u5f79
p574
I1559
sV\u7ef8
p575
I4059
sV\u517d
p576
I345
sV\u6c85
p577
I2688
sV\u788d
p578
I3613
sV\u5012
p579
I245
sV\u809d
p580
I4243
sV\u9aa1
p581
I6084
sV\u96a9
p582
I5802
sV\u742a
p583
I3287
sV\u6daf
p584
I2835
sV\u67b3
p585
I2338
sV\u5f38
p586
I1535
sV\u73bb
p587
I3253
sV\u6b40
p588
I2579
sV\u6748
p589
I2287
sV\u794c
p590
I3654
sV\u7350
p591
I3225
sV\u54d5
p592
I714
sV\u7554
p593
I3380
sV\u8f58
p594
I5279
sV\u6e6e
p595
I2901
sV\u82f1
p596
I4444
sV\u7a76
p597
I3742
sV\u90fd
p598
I5483
sV\u767e
p599
I3452
sV\u8882
p600
I4832
sV\u7b0b
p601
I3786
sV\u5390
p602
I562
sV\u5594
p603
I775
sV\u4e19
p604
I21
sV\u851f
p605
I4628
sV\u4eae
p606
I97
sV\u6435
p607
I2016
sV\u68c2
p608
I2439
sV\u62c6
p609
I1870
sV\u7ece
p610
I4026
sV\u4fd8
p611
I223
sV\u7167
p612
I3093
sV\u94ea
p613
I5622
sV\u9977
p614
I6005
sV\u957f
p615
I5690
sV\u8c00
p616
I5030
sV\u7591
p617
I3399
sV\u7395
p618
I3239
sV\u7526
p619
I3357
sV\u6cab
p620
I2710
sV\u732a
p621
I3214
sV\u7eb7
p622
I4004
sV\u6c40
p623
I2658
sV\u6a44
p624
I2540
sV\u86c7
p625
I4722
sV\u5fcd
p626
I1596
sV\u90d3
p627
I5468
sV\u67dd
p628
I2360
sV\u5f62
p629
I1546
sV\u7be5
p630
I3872
sV\u5566
p631
I756
sV\u9068
p632
I5423
sV\u8fed
p633
I5365
sV\u696e
p634
I2484
sV\u6772
p635
I2308
sV\u5ef7
p636
I1508
sV\u52ff
p637
I492
sV\u8f82
p638
I5303
sV\u7c0b
p639
I3886
sV\u5490
p640
I685
sV\u821f
p641
I4356
sV\u5d21
p642
I1352
sV\u6f2d
p643
I2964
sV\u8eac
p644
I5265
sV\u96bc
p645
I5808
sV\u8d41
p646
I5139
sV\u6fc2
p647
I3000
sV\u65c6
p648
I2140
sV\u5c4b
p649
I1280
sV\u645b
p650
I2029
sV\u8bda
p651
I4998
sV\u8c6b
p652
I5088
sV\u62f4
p653
I1901
sV\u5979
p654
I1041
sV\u76fc
p655
I3501
sV\u6c81
p656
I2684
sV\u6089
p657
I1670
sV\u7e8d
p658
I3979
sV\u9510
p659
I5641
sV\u5612
p660
I802
sV\u59a3
p661
I1055
sV\u7e22
p662
I3968
sV\u9aa5
p663
I6087
sV\u7426
p664
I3285
sV\u722a
p665
I3125
sV\u5938
p666
I1013
sV\u903e
p667
I5408
sV\u6148
p668
I1734
sV\u54d1
p669
I713
sV\u68d9
p670
I2448
sV\u66dd
p671
I2242
sV\u5e62
p672
I1454
sV\u7ae5
p673
I3775
sV\u5466
p674
I667
sV\u526a
p675
I450
sV\u7a7a
p676
I3745
sV\u707e
p677
I3036
sV\u828a
p678
I4396
sV\u5f8c
p679
I1572
sV\u7b0f
p680
I3787
sV\u988e
p681
I5932
sV\u8f17
p682
I5275
sV\u679c
p683
I2325
sV\u5a25
p684
I1101
sV\u5029
p685
I255
sV\u71a8
p686
I3107
sV\u6e2d
p687
I2882
sV\u85b0
p688
I4662
sV\u8c41
p689
I5079
sV\u6ec2
p690
I2927
sV\u5d4b
p691
I1364
sV\u62ca
p692
I1873
sV\u9e4d
p693
I6231
sV\u9451
p694
I5575
sV\u76d2
p695
I3485
sV\u655b
p696
I2091
sV\u635f
p697
I1943
sV\u80de
p698
I4271
sV\u5be4
p699
I1238
sV\u94e6
p700
I5619
sV\u8d6b
p701
I5170
sV\u6fec
p702
I3009
sV\u65f0
p703
I2162
sV\u63f4
p704
I1996
sV\u567d
p705
I823
sV\u6389
p706
I1959
sV\u7d8d
p707
I3958
sV\u7791
p708
I3548
sV\u9610
p709
I5732
sV\u9014
p710
I5389
sV\u8b99
p711
I4946
sV\u859d
p712
I4658
sV\u631e
p713
I1918
sV\u7d22
p714
I3947
sV\u99a5
p715
I6026
sV\u7726
p716
I3514
sV\u68af
p717
I2432
sV\u543c
p718
I651
sV\u6844
p719
I2404
sV\u6248
p720
I1808
sV\u5dcd
p721
I1389
sV\u98cf
p722
I5957
sV\uff0c
p723
I6335
sV\u6bd9
p724
I2634
sV\u7fe1
p725
I4181
sV\u5766
p726
I886
sV\u73e9
p727
I3266
sV\u6572
p728
I2102
sV\u797a
p729
I3677
sV\u95fd
p730
I5716
sV\u4e80
p731
I70
sV\u818a
p732
I4319
sV\u5c8c
p733
I1305
sV\u8c17
p734
I5051
sV\u7ea0
p735
I3982
sV\u9a23
p736
I6036
sV\u5925
p737
I1002
sV\u6731
p738
I2278
sV\u80b4
p739
I4256
sV\u9ab8
p740
I6093
sV\u8349
p741
I4483
sV\u61ca
p742
I1763
sV\u9751
p743
I5859
sV\u75d2
p744
I3420
sV\u6c57
p745
I2665
sV\u89da
p746
I4918
sV\u58e4
p747
I980
sV\u97e6
p748
I5896
sV\u6cec
p749
I2745
sV\u66f0
p750
I2246
sV\u8273
p751
I4392
sV\u907f
p752
I5430
sV\u8f00
p753
I5271
sV\u6885
p754
I2424
sV\u6289
p755
I1841
sV\u7691
p756
I3460
sV\u5412
p757
I629
sV\u7095
p758
I3043
sV\u5ba3
p759
I1205
sV\u55a7
p760
I779
sV\u7626
p761
I3441
sV\u9e36
p762
I6217
sV\u77bb
p763
I3560
sV\u553c
p764
I743
sV\u4ec1
p765
I105
sV\u8bc3
p766
I4979
sV\u99cf
p767
I6029
sV\u7750
p768
I3528
sV\u4e56
p769
I57
sV\u7ee1
p770
I4040
sV\u9964
p771
I5990
sV\u72e9
p772
I3192
sV\u86f1
p773
I4733
sV\u5df7
p774
I1408
sV\u9af9
p775
I6106
sV\u51ff
p776
I399
sV\u6b03
p777
I2563
sV\u8c82
p778
I5095
sV\u7f0b
p779
I4076
sV\u9a8e
p780
I6069
sV\u659c
p781
I2117
sV\u5e21
p782
I1432
sV\u9b23
p783
I6115
sV\u5229
p784
I422
sV\u81b4
p785
I4326
sV\u5eb6
p786
I1493
sV\u52be
p787
I477
sV\u8e41
p788
I5235
sV\u8845
p789
I4808
sV\u8249
p790
I4375
sV\u60ca
p791
I1694
sV\u594f
p792
I1024
sV\u5353
p793
I529
sV\u74d2
p794
I3330
sV\u82de
p795
I4437
sV\u5fe0
p796
I1604
sV\u53e8
p797
I599
sV\u8f6b
p798
I5284
sV\u6dec
p799
I2856
sV\u67f0
p800
I2367
sV\u9d77
p801
I6183
sV\u7bf8
p802
I3881
sV\u547d
p803
I675
sV\u75fc
p804
I3431
sV\u917f
p805
I5524
sV\u7181
p806
I3098
sV\u9000
p807
I5374
sV\u5f0a
p808
I1517
sV\u820c
p809
I4348
sV\u5e9f
p810
I1484
sV\u70ab
p811
I3047
sV\u6f2a
p812
I2962
sV\u522c
p813
I424
sV\u952e
p814
I5651
sV\u5830
p815
I943
sV\u7cb3
p816
I3927
sV\u9b32
p817
I6117
sV\u873a
p818
I4755
sV\u8d3e
p819
I5136
sV\u94c3
p820
I5605
sV\u5dc9
p821
I1388
sV\u6850
p822
I2407
sV\u6e54
p823
I2895
sV\u5156
p824
I324
sV\u575a
p825
I878
sV\u7bdd
p826
I3869
sV\u67e5
p827
I2363
sV\u7b72
p828
I3828
sV\u8bfd
p829
I5028
sV\u4eff
p830
I138
sV\u5080
p831
I277
sV\u7403
p832
I3272
sV\u9986
p833
I6013
sV\u5c88
p834
I1304
sV\u9f8a
p835
I6329
sV\u660f
p836
I2175
sV\u6c13
p837
I2649
sV\u4e94
p838
I80
sV\u7498
p839
I3321
sV\u5b1d
p840
I1154
sV\u7a9c
p841
I3759
sV\u9e1f
p842
I6200
sV\u60a0
p843
I1678
sV\u6ca8
p844
I2708
sV\u7f35
p845
I4113
sV\u9eb4
p846
I6277
sV\u6539
p847
I2077
sV\u84b8
p848
I4599
sV\u73c2
p849
I3255
sV\u7fca
p850
I4170
sV\u65ce
p851
I2144
sV\u6bd2
p852
I2628
sV\u7257
p853
I3146
sV\u89e6
p854
I4923
sV\u8fea
p855
I5363
sV\u72ec
p856
I3193
sV\u7ef4
p857
I4055
sV\u9704
p858
I5838
sV\u5806
p859
I932
sV\u7c89
p860
I3911
sV\u8910
p861
I4873
sV\u9499
p862
I5586
sV\u9a9d
p863
I6081
sV\u80a1
p864
I4245
sV\u6222
p865
I1790
sV\u63b7
p866
I1977
sV\u8036
p867
I4214
sV\u69bb
p868
I2509
sV\u87cf
p869
I4791
sV\u4ed5
p870
I119
sV\u5c5e
p871
I1287
sV\u8160
p872
I4308
sV\u51eb
p873
I388
sV\u98f1
p874
I5973
sV\u5df3
p875
I1405
sV\u6076
p876
I1661
sV\u667a
p877
I2218
sV\u6c7e
p878
I2683
sV\u5180
p879
I346
sV\u7503
p880
I3346
sV\u5784
p881
I897
sV\u9886
p882
I5926
sV\u4f94
p883
I200
sV\u7b9c
p884
I3846
sV\u6da8
p885
I2832
sV\u722d
p886
I3127
sV\u5ab2
p887
I1128
sV\u6a3d
p888
I2538
sV\u8bbc
p889
I4972
sV\u9041
p890
I5409
sV\u5543
p891
I747
sV\u72c2
p892
I3178
sV\u9645
p893
I5762
sV\u7eca
p894
I4022
sV\u64ce
p895
I2058
sV\u795b
p896
I3662
sV\u7f5f
p897
I4130
sV\u9cde
p898
I6173
sV\u6563
p899
I2095
sV\u6b67
p900
I2595
sV\u79f0
p901
I3715
sV\u8377
p902
I4507
sV\u65f8
p903
I2166
sV\u8f7f
p904
I5302
sV\u800c
p905
I4201
sV\u6d95
p906
I2822
sV\u8c14
p907
I5048
sV\u7316
p908
I3207
sV\u5a9b
p909
I1125
sV\u751a
p910
I3353
sV\u7f1e
p911
I4093
sV\u8fa9
p912
I5331
sV\u6d2a
p913
I2773
sV\u502c
p914
I257
sV\u7eb3
p915
I4001
sV\u8336
p916
I4473
sV\u853a
p917
I4633
sV\u6cbf
p918
I2722
sV\u53c1
p919
I576
sV\u55c5
p920
I784
sV\u5fc9
p921
I1594
sV\u6a50
p922
I2541
sV\u5356
p923
I531
sV\u63e1
p924
I1990
sV\u65e5
p925
I2155
sV\u6fe9
p926
I3008
sV\u91ed
p927
I5561
sV\u7972
p928
I3674
sV\u6376
p929
I1952
sV\u87f9
p930
I4798
sV\u5484
p931
I678
sV\u640f
p932
I2005
sV\u9017
p933
I5391
sV\u62a0
p934
I1854
sV\u64a4
p935
I2045
sV\u712d
p936
I3082
sV\u57ae
p937
I912
sV\u7b31
p938
I3803
sV\u9ab0
p939
I6091
sV\u693d
p940
I2471
sV\u7bc6
p941
I3861
sV\u67ce
p942
I2349
sV\u93d6
p943
I5570
sV\u6867
p944
I2416
sV\u8be6
p945
I5009
sV\u8dea
p946
I5206
sV\u516d
p947
I332
sV\u70ec
p948
I3072
sV\u5b71
p949
I1178
sV\u9e73
p950
I6257
sV\u68fc
p951
I2460
sV\u7281
p952
I3163
sV\u9504
p953
I5636
sV\u5a06
p954
I1091
sV\u5c0a
p955
I1253
sV\u608d
p956
I1672
sV\u5197
p957
I354
sV\u9699
p958
I5797
sV\u5b9b
p959
I1198
sV\u741a
p960
I3280
sV\u989d
p961
I5943
sV\u82a1
p962
I4407
sV\u8ea9
p963
I5263
sV\u73ab
p964
I3245
sV\u75af
p965
I3406
sV\u962e
p966
I5749
sV\u8236
p967
I4368
sV\u6dbf
p968
I2840
sV\u5ec9
p969
I1497
sV\u614c
p970
I1736
sV\u85cf
p971
I4665
sV\u8fd3
p972
I5348
sV\u6d54
p973
I2799
sV\u5256
p974
I444
sV\u5e5e
p975
I1452
sV\u8360
p976
I4495
sV\u8564
p977
I4647
sV\u6ee9
p978
I2945
sV\u8f68
p979
I5282
sV\u53eb
p980
I602
sV\u90ed
p981
I5479
sV\u6276
p982
I1832
sV\u6e7e
p983
I2903
sV\u9082
p984
I5432
sV\u5584
p985
I766
sV\u9a86
p986
I6063
sV\u5f88
p987
I1568
sV\u9c8a
p988
I6144
sV\u6f13
p989
I2954
sV\u8892
p990
I4839
sV\u63a0
p991
I1967
sV\u65a4
p992
I2121
sV\u8927
p993
I4880
sV\u683d
p994
I2398
sV\u70c2
p995
I3060
sV\u5947
p996
I1019
sV\u9e49
p997
I6229
sV\u7cca
p998
I3934
sV\u4f53
p999
I176
sV\u68d2
p1000
I2444
sV\u8c55
p1001
I5083
sV\u57d8
p1002
I920
sV\u7b5b
p1003
I3820
sV\u59dc
p1004
I1076
sV\u4fe8
p1005
I230
sV\u5d06
p1006
I1343
sV\u678d
p1007
I2320
sV\u6d91
p1008
I2819
sV\u8c10
p1009
I5044
sV\u5c9b
p1010
I1314
sV\u4ea7
p1011
I91
sV\u72af
p1012
I3171
sV\u912e
p1013
I5493
sV\u5a34
p1014
I1105
sV\u6cbb
p1015
I2718
sV\u893e
p1016
I4887
sV\u7440
p1017
I3297
sV\u664c
p1018
I2198
sV\u82cf
p1019
I4428
sV\u6c50
p1020
I2664
sV\u5556
p1021
I753
sV\u535a
p1022
I533
sV\u9e5c
p1023
I6241
sV\u8868
p1024
I4820
sV\u97ed
p1025
I5901
sV\u716e
p1026
I3095
sV\u58f3
p1027
I985
sV\u7f72
p1028
I4140
sV\u637a
p1029
I1954
sV\u8ffd
p1030
I5373
sV\u5480
p1031
I676
sV\u7003
p1032
I3013
sV\u620f
p1033
I1779
sV\u6813
p1034
I2385
sV\u9617
p1035
I5739
sV\u62a4
p1036
I1857
sV\u68a8
p1037
I2430
sV\u9cb0
p1038
I6157
sV\u80b8
p1039
I4257
sV\u5043
p1040
I262
sV\u8d51
p1041
I5153
sV\u6fd2
p1042
I3004
sV\u6063
p1043
I1650
sV\u87e2
p1044
I4795
sV\u60f8
p1045
I1714
sV\u7481
p1046
I3314
sV\u9500
p1047
I5633
sV\u5c06
p1048
I1251
sV\u7889
p1049
I3611
sV\u668d
p1050
I2225
sV\u9099
p1051
I5441
sV\u721a
p1052
I3123
sV\u9e9d
p1053
I6270
sV\u82a5
p1054
I4409
sV\u4fa7
p1055
I206
sV\u75ab
p1056
I3404
sV\u6a2a
p1057
I2534
sV\u572c
p1058
I861
sV\u73af
p1059
I3247
sV\u902e
p1060
I5402
sV\u79b3
p1061
I3690
sV\u9e32
p1062
I6215
sV\u5b34
p1063
I1156
sV\u67b7
p1064
I2340
sV\u4f3c
p1065
I168
sV\u6bbf
p1066
I2621
sV\u54c1
p1067
I705
sV\u7540
p1068
I3374
sV\u7948
p1069
I3651
sV\u674c
p1070
I2289
sV\u6d50
p1071
I2795
sV\u6b54
p1072
I2586
sV\u70d9
p1073
I3063
sV\u7edd
p1074
I4037
sV\u585e
p1075
I952
sV\u62e5
p1076
I1891
sV\u8364
p1077
I4498
sV\u55eb
p1078
I794
sV\u53ef
p1079
I606
sV\u5384
p1080
I556
sV\u7f07
p1081
I4072
sV\u5988
p1082
I1049
sV\u9a8a
p1083
I6066
sV\u5019
p1084
I249
sV\u5e1d
p1085
I1430
sV\u9b1f
p1086
I6114
sV\u8f27
p1087
I5276
sV\u69a8
p1088
I2502
sV\u97ac
p1089
I5885
sV\u5143
p1090
I312
sV\u76c2
p1091
I3473
sV\u94d6
p1092
I5611
sV\u51d8
p1093
I382
sV\u98de
p1094
I5969
sV\u956b
p1095
I5683
sV\u566d
p1096
I819
sV\u5c71
p1097
I1296
sV\u5a75
p1098
I1118
sV\u7bf4
p1099
I3879
sV\u9600
p1100
I5719
sV\u9004
p1101
I5378
sV\u840c
p1102
I4557
sV\u6995
p1103
I2497
sV\u711a
p1104
I3079
sV\u589f
p1105
I967
sV\u7b1e
p1106
I3794
sV\u6f26
p1107
I2960
sV\u8ba9
p1108
I4955
sV\u542c
p1109
I642
sV\u70af
p1110
I3051
sV\u64b7
p1111
I2052
sV\u86cb
p1112
I4724
sV\u6854
p1113
I2410
sV\u515a
p1114
I325
sV\u56eb
p1115
I839
sV\u95ed
p1116
I5700
sV\u736e
p1117
I3231
sV\u83f9
p1118
I4548
sV\u4efb
p1119
I136
sV\u7c07
p1120
I3884
sV\u9f86
p1121
I6326
sV\u998a
p1122
I6015
sV\u838e
p1123
I4514
sV\u5319
p1124
I502
sV\u8223
p1125
I4358
sV\u8c27
p1126
I5064
sV\u53ae
p1127
I573
sV\u7f31
p1128
I4110
sV\u9eb0
p1129
I6275
sV\u6339
p1130
I1929
sV\u82b8
p1131
I4421
sV\u6d3d
p1132
I2782
sV\u5243
p1133
I435
sV\u9b49
p1134
I6126
sV\u8955
p1135
I4891
sV\u7457
p1136
I3302
sV\u52d8
p1137
I486
sV\u6263
p1138
I1821
sV\u8fe6
p1139
I5360
sV\u556d
p1140
I758
sV\u5f71
p1141
I1556
sV\u7ef0
p1142
I4053
sV\u9a73
p1143
I6045
sV\u78f4
p1144
I3637
sV\u8e7b
p1145
I5256
sV\u6cfc
p1146
I2754
sV\u887f
p1147
I4830
sV\u9700
p1148
I5835
sV\u5e06
p1149
I1415
sV\u850c
p1150
I4622
sV\u701a
p1151
I3016
sV\u86a1
p1152
I4712
sV\u6422
p1153
I2011
sV\u80a5
p1154
I4248
sV\u682a
p1155
I2391
sV\u5934
p1156
I1011
sV\u7740
p1157
I3523
sV\u9dc7
p1158
I6190
sV\u5ac9
p1159
I1136
sV\u87cb
p1160
I4790
sV\u654c
p1161
I2084
sV\u4ed1
p1162
I116
sV\u6954
p1163
I2474
sV\u72d9
p1164
I3186
sV\u505a
p1165
I268
sV\u8760
p1166
I4766
sV\u4e66
p1167
I65
sV\u94ed
p1168
I5624
sV\u51ef
p1169
I390
sV\u6676
p1170
I2215
sV\u82f9
p1171
I4446
sV\u607a
p1172
I1664
sV\u7303
p1173
I3203
sV\u5b88
p1174
I1187
sV\u670b
p1175
I2260
sV\u988a
p1176
I5930
sV\u610f
p1177
I1722
sV\u828e
p1178
I4399
sV\u6b13
p1179
I2564
sV\u5219
p1180
I415
sV\u9f1b
p1181
I6311
sV\u5c1d
p1182
I1260
sV\u8d27
p1183
I5113
sV\u5343
p1184
I517
sV\u5d47
p1185
I1363
sV\u7ec6
p1186
I4018
sV\u78ca
p1187
I3629
sV\u8e51
p1188
I5243
sV\u53d8
p1189
I590
sV\u7f5b
p1190
I4128
sV\u795f
p1191
I3666
sV\u6363
p1192
I1945
sV\u976b
p1193
I5870
sV\u7ff0
p1194
I4187
sV\u5875
p1195
I955
sV\u8f7b
p1196
I5298
sV\u6dfc
p1197
I2864
sV\u897f
p1198
I4899
sV\u7981
p1199
I3680
sV\u7f85
p1200
I4148
sV\u5106
p1201
I301
sV\u6191
p1202
I1752
sV\u8010
p1203
I4203
sV\u6795
p1204
I2322
sV\u7f1a
p1205
I4089
sV\u6b22
p1206
I2567
sV\u672a
p1207
I2272
sV\u7eaf
p1208
I3997
sV\u5634
p1209
I807
sV\u7840
p1210
I3600
sV\u9cc3
p1211
I6163
sV\u5fc5
p1212
I1592
sV\u7e44
p1213
I3971
sV\u8ecf
p1214
I5269
sV\u6050
p1215
I1643
sV\u84d3
p1216
I4612
sV\u5956
p1217
I1028
sV\u8e64
p1218
I5247
sV\u65e9
p1219
I2159
sV\u58eb
p1220
I981
sV\u7d6e
p1221
I3956
sV\u54f3
p1222
I726
sV\u97f5
p1223
I5903
sV\u8df9
p1224
I5212
sV\u6f7a
p1225
I2983
sV\u83fd
p1226
I4550
sV\u5880
p1227
I958
sV\u7c03
p1228
I3883
sV\u5e84
p1229
I1467
sV\u7207
p1230
I3122
sV\u9186
p1231
I5527
sV\u680b
p1232
I2381
sV\u6413
p1233
I2006
sV\u8392
p1234
I4515
sV\u7c98
p1235
I3916
sV\u531d
p1236
I503
sV\u729c
p1237
I3168
sV\u961f
p1238
I5744
sV\u8c23
p1239
I5060
sV\u4f25
p1240
I157
sV\u7b2d
p1241
I3801
sV\u5dae
p1242
I1382
sV\u90b0
p1243
I5451
sV\u633d
p1244
I1932
sV\u9941
p1245
I5986
sV\u5c43
p1246
I1276
sV\u9f45
p1247
I6317
sV\u4e4f
p1248
I54
sV\u8151
p1249
I4303
sV\u63d2
p1250
I1987
sV\u7a57
p1251
I3739
sV\u8be2
p1252
I5005
sV\u4ee4
p1253
I127
sV\u6267
p1254
I1822
sV\u87ea
p1255
I4797
sV\u9e6f
p1256
I6255
sV\u5171
p1257
I335
sV\u76f4
p1258
I3499
sV\u6cf8
p1259
I2752
sV\u62fc
p1260
I1903
sV\u867f
p1261
I4702
sV\u9508
p1262
I5638
sV\u8110
p1263
I4291
sV\u5b97
p1264
I1194
sV\u7816
p1265
I3589
sV\u9c99
p1266
I6148
sV\u519b
p1267
I356
sV\u7faf
p1268
I4161
sV\u6bb7
p1269
I2619
sV\u67bf
p1270
I2344
sV\u58c1
p1271
I973
sV\u7940
p1272
I3648
sV\u9dc3
p1273
I6189
sV\u7f44
p1274
I4118
sV\u54c9
p1275
I710
sV\u6b4c
p1276
I2585
sV\u85d3
p1277
I4667
sV\u7cd9
p1278
I3937
sV\u72dd
p1279
I3187
sV\u6ee5
p1280
I2943
sV\u8568
p1281
I4648
sV\u9aed
p1282
I6104
sV\u7272
p1283
I3156
sV\u6876
p1284
I2420
sV\u9a82
p1285
I6060
sV\u5f84
p1286
I1565
sV\u5588
p1287
I768
sV\u6f0f
p1288
I2953
sV\u8292
p1289
I4400
sV\u521d
p1290
I418
sV\u8d23
p1291
I5109
sV\u4e25
p1292
I29
sV\u8327
p1293
I4465
sV\u52b2
p1294
I473
sV\u7635
p1295
I3444
sV\u97b4
p1296
I5890
sV\u4eba
p1297
I102
sV\u623d
p1298
I1800
sV\u83bc
p1299
I4529
sV\u9e45
p1300
I6225
sV\u5347
p1301
I519
sV\u76ca
p1302
I3477
sV\u4f4f
p1303
I173
sV\u62d2
p1304
I1878
sV\u98d6
p1305
I5963
sV\u5dd8
p1306
I1391
sV\u775f
p1307
I3531
sV\u6d63
p1308
I2803
sV\u6367
p1309
I1946
sV\u996b
p1310
I5994
sV\u9573
p1311
I5687
sV\u817b
p1312
I4315
sV\u9a00
p1313
I6031
sV\u5306
p1314
I496
sV\u9608
p1315
I5726
sV\u4f0e
p1316
I143
sV\u8210
p1317
I4350
sV\u9f99
p1318
I6331
sV\u529b
p1319
I459
sV\u8ba1
p1320
I4948
sV\u7caf
p1321
I3924
sV\u5230
p1322
I426
sV\u5434
p1323
I646
sV\u4e38
p1324
I38
sV\u8d3a
p1325
I5132
sV\u7a40
p1326
I3734
sV\u5dc5
p1327
I1386
sV\u90c7
p1328
I5462
sV\u684c
p1329
I2406
sV\u6454
p1330
I2027
sV\u5b56
p1331
I1162
sV\u7fd9
p1332
I4176
sV\u9e58
p1333
I6238
sV\u5d5a
p1334
I1369
sV\u575e
p1335
I881
sV\u6be1
p1336
I2637
sV\u67e9
p1337
I2364
sV\u5aeb
p1338
I1149
sV\u7f6e
p1339
I4138
sV\u95f5
p1340
I5708
sV\u8ff9
p1341
I5372
sV\u677e
p1342
I2313
sV\u6c0f
p1343
I2646
sV\u8f8e
p1344
I5314
sV\u6613
p1345
I2177
sV\u709c
p1346
I3046
sV\u941f
p1347
I5573
sV\u6aa0
p1348
I2557
sV\u6ca4
p1349
I2704
sV\u66a8
p1350
I2232
sV\u5fae
p1351
I1585
sV\u7331
p1352
I3218
sV\u51b2
p1353
I366
sV\u7535
p1354
I3368
sV\u9b41
p1355
I6120
sV\u5047
p1356
I263
sV\u75ca
p1357
I3416
sV\u6fce
p1358
I3002
sV\u8351
p1359
I4486
sV\u61d2
p1360
I1766
sV\u7857
p1361
I3605
sV\u5ed8
p1362
I1502
sV\u725b
p1363
I3148
sV\u745f
p1364
I3308
sV\u596d
p1365
I1036
sV\u78ec
p1366
I3636
sV\u5371
p1367
I547
sV\u8877
p1368
I4827
sV\u7a81
p1369
I3747
sV\u5802
p1370
I930
sV\u5206
p1371
I403
sV\u9708
p1372
I5842
sV\u540a
p1373
I622
sV\u4e0e
p1374
I13
sV\u6291
p1375
I1843
sV\u6495
p1376
I2041
sV\u8514
p1377
I4625
sV\u4fa3
p1378
I204
sV\u86a9
p1379
I4715
sV\u7bab
p1380
I3853
sV\u7daf
p1381
I3961
sV\u9e2e
p1382
I6211
sV\u77b3
p1383
I3556
sV\u69b7
p1384
I2507
sV\u4f38
p1385
I166
sV\u65bf
p1386
I2134
sV\u5ac1
p1387
I1133
sV\u91c7
p1388
I5551
sV\u8bcb
p1389
I4986
sV\u8dcf
p1390
I5195
sV\u6350
p1391
I1940
sV\u6554
p1392
I2087
sV\u7ed9
p1393
I4033
sV\u70dd
p1394
I3066
sV\u6ce5
p1395
I2741
sV\u8d64
p1396
I5167
sV\u66e9
p1397
I2245
sV\u80fd
p1398
I4283
sV\u7f03
p1399
I4068
sV\u9882
p1400
I5922
sV\u948a
p1401
I5580
sV\u6713
p1402
I2263
sV\u9917
p1403
I5980
sV\u5e19
p1404
I1426
sV\u6da4
p1405
I2829
sV\u67a8
p1406
I2330
sV\u782d
p1407
I3594
sV\u7231
p1408
I3129
sV\u50b2
p1409
I288
sV\u7435
p1410
I3294
sV\u9649
p1411
I5766
sV\u884d
p1412
I4810
sV\u8251
p1413
I4378
sV\u7957
p1414
I3660
sV\u5fd8
p1415
I1601
sV\u6167
p1416
I1743
sV\u82e6
p1417
I4442
sV\u84ea
p1418
I4617
sV\u73f0
p1419
I3270
sV\u9773
p1420
I5871
sV\u5475
p1421
I671
sV\u75f4
p1422
I3428
sV\u837b
p1423
I4509
sV\u61fc
p1424
I1771
sV\u5f02
p1425
I1513
sV\u7b85
p1426
I3836
sV\u9a04
p1427
I6033
sV\u5506
p1428
I731
sV\u6f8d
p1429
I2988
sV\u8e0c
p1430
I5218
sV\u6591
p1431
I2111
sV\u8410
p1432
I4561
sV\u8214
p1433
I4352
sV\u5e97
p1434
I1479
sV\u9999
p1435
I6025
sV\u549b
p1436
I689
sV\u529f
p1437
I462
sV\u8ba5
p1438
I4952
sV\u992e
p1439
I5985
sV\u70b3
p1440
I3052
sV\u9732
p1441
I5854
sV\u6eb7
p1442
I2923
sV\u8d36
p1443
I5128
sV\u62bf
p1444
I1866
sV\u813e
p1445
I4299
sV\u7c40
p1446
I3901
sV\u5bc5
p1447
I1224
sV\u51c9
p1448
I377
sV\u6450
p1449
I2025
sV\u6254
p1450
I1816
sV\u5b5a
p1451
I1166
sV\u6de1
p1452
I2853
sV\u95f1
p1453
I5704
sV\u4ef7
p1454
I135
sV\u617e
p1455
I1749
sV\u6c0b
p1456
I2644
sV\u4e8c
p1457
I75
sV\u5919
p1458
I997
sV\u8627
p1459
I4680
sV\u60a8
p1460
I1681
sV\u7f2d
p1461
I4106
sV\u59ae
p1462
I1062
sV\u7531
p1463
I3365
sV\u7335
p1464
I3220
sV\u6939
p1465
I2470
sV\u673d
p1466
I2282
sV\u9b45
p1467
I6123
sV\u9149
p1468
I5498
sV\u73ca
p1469
I3258
sV\u69ce
p1470
I2515
sV\u67d2
p1471
I2353
sV\u9dd6
p1472
I6191
sV\u745b
p1473
I3305
sV\u725f
p1474
I3150
sV\u8fe2
p1475
I5357
sV\u5f6d
p1476
I1553
sV\u9a6f
p1477
I6042
sV\u5375
p1478
I550
sV\u66fc
p1479
I2253
sV\u5e02
p1480
I1412
sV\u7a85
p1481
I3750
sV\u5406
p1482
I619
sV\u7089
p1483
I3039
sV\u520a
p1484
I406
sV\u6491
p1485
I2039
sV\u6295
p1486
I1847
sV\u8314
p1487
I4460
sV\u5f97
p1488
I1576
sV\u9899
p1489
I5940
sV\u7a1a
p1490
I3725
sV\u539f
p1491
I567
sV\u6426
p1492
I2012
sV\u80a9
p1493
I4249
sV\u622a
p1494
I1792
sV\u71b3
p1495
I3109
sV\u9632
p1496
I5751
sV\u8c36
p1497
I5075
sV\u8dcb
p1498
I5192
sV\u4ecd
p1499
I114
sV\u8bcf
p1500
I4989
sV\u9958
p1501
I5989
sV\u5a5a
p1502
I1114
sV\u76dd
p1503
I3491
sV\u6ce1
p1504
I2738
sV\u8d60
p1505
I5163
sV\u60e9
p1506
I1706
sV\u5deb
p1507
I1401
sV\u786e
p1508
I3608
sV\u51f3
p1509
I392
sV\u6c76
p1510
I2680
sV\u88f9
p1511
I4868
sV\u9e82
p1512
I6260
sV\u5b84
p1513
I1184
sV\u7707
p1514
I3505
sV\u5188
p1515
I348
sV\u6d0b
p1516
I2760
sV\u888e
p1517
I4838
sV\u9f17
p1518
I6308
sV\u61a8
p1519
I1756
sV\u7235
p1520
I3130
sV\u6839
p1521
I2395
sV\u7ec2
p1522
I4014
sV\u5747
p1523
I871
sV\u8451
p1524
I4576
sV\u7f57
p1525
I4125
sV\u9cd6
p1526
I6169
sV\u755b
p1527
I3382
sV\u6963
p1528
I2481
sV\u84e6
p1529
I4616
sV\u9b6f
p1530
I6134
sV\u75f0
p1531
I3427
sV\u7f81
p1532
I4146
sV\u9e00
p1533
I6194
sV\u5d02
p1534
I1341
sV\u7985
p1535
I3682
sV\u5706
p1536
I852
sV\u7389
p1537
I3236
sV\u8c0c
p1538
I5040
sV\u5c97
p1539
I1311
sV\u7f16
p1540
I4085
sV\u6d22
p1541
I2768
sV\u6726
p1542
I2270
sV\u83a9
p1543
I4520
sV\u7eab
p1544
I3993
sV\u6cb7
p1545
I2715
sV\u8f36
p1546
I5277
sV\u53c9
p1547
I581
sV\u7248
p1548
I3139
sV\u82d3
p1549
I4431
sV\u5f56
p1550
I1543
sV\u7bd9
p1551
I3867
sV\u595a
p1552
I1031
sV\u535e
p1553
I535
sV\u6fe1
p1554
I3007
sV\u63e9
p1555
I1992
sV\u8268
p1556
I4386
sV\u7b6e
p1557
I3826
sV\u7572
p1558
I3389
sV\u8bf9
p1559
I5024
sV\u5288
p1560
I455
sV\u918a
p1561
I5530
sV\u680f
p1562
I2383
sV\u961b
p1563
I5742
sV\u749c
p1564
I3323
sV\u901f
p1565
I5395
sV\u8427
p1566
I4567
sV\u96b0
p1567
I5804
sV\u90b4
p1568
I5453
sV\u6b39
p1569
I2575
sV\u4e4b
p1570
I50
sV\u8d4d
p1571
I5149
sV\u65d2
p1572
I2147
sV\u8155
p1573
I4307
sV\u5ad8
p1574
I1141
sV\u6467
p1575
I2030
sV\u9e6b
p1576
I6252
sV\u81ea
p1577
I4334
sV\u5175
p1578
I338
sV\u807f
p1579
I4231
sV\u7e81
p1580
I3977
sV\u6c8d
p1581
I2693
sV\u6691
p1582
I2226
sV\u8114
p1583
I4293
sV\u579b
p1584
I903
sV\u781a
p1585
I3590
sV\u949d
p1586
I5588
sV\u82a9
p1587
I4412
sV\u602a
p1588
I1633
sV\u5730
p1589
I865
sV\u73b3
p1590
I3250
sV\u67bb
p1591
I2343
sV\u58c5
p1592
I974
sV\u95c7
p1593
I5694
sV\u52c9
p1594
I481
sV\u89cf
p1595
I4914
sV\u6750
p1596
I2292
sV\u7ad9
p1597
I3770
sV\u585a
p1598
I951
sV\u955c
p1599
I5676
sV\u6ee1
p1600
I2940
sV\u62e9
p1601
I1895
sV\u5feb
p1602
I1607
sV\u53f3
p1603
I610
sV\u627e
p1604
I1835
sV\u5f80
p1605
I1562
sV\u7b03
p1606
I3783
sV\u9c82
p1607
I6142
sV\u5984
p1608
I1046
sV\u9686
p1609
I5788
sV\u541d
p1610
I634
sV\u63a8
p1611
I1973
sV\u9dac
p1612
I6186
sV\u91b4
p1613
I5545
sV\u4eb6
p1614
I99
sV\u8bb8
p1615
I4969
sV\u76c6
p1616
I3475
sV\u8651
p1617
I4690
sV\u64d2
p1618
I2060
sV\u5bd8
p1619
I1233
sV\u775b
p1620
I3530
sV\u98da
p1621
I5967
sV\u55dc
p1622
I788
sV\u6b63
p1623
I2591
sV\u80ea
p1624
I4276
sV\u996f
p1625
I5998
sV\u77f0
p1626
I3575
sV\u8d77
p1627
I5176
sV\u817f
p1628
I4317
sV\u6302
p1629
I1908
sV\u8a87
p1630
I4933
sV\u908b
p1631
I5436
sV\u968f
p1632
I5792
sV\u5f95
p1633
I1575
sV\u6297
p1634
I1849
sV\u6e9f
p1635
I2914
sV\u9020
p1636
I5396
sV\u9624
p1637
I5746
sV\u622c
p1638
I1793
sV\u6e34
p1639
I2884
sV\u7a3c
p1640
I3731
sV\u67c5
p1641
I2347
sV\u8946
p1642
I4890
sV\u73cd
p1643
I3259
sV\u524c
p1644
I439
sV\u79d1
p1645
I3702
sV\u7fd5
p1646
I4174
sV\u5e54
p1647
I1449
sV\u82d7
p1648
I4434
sV\u88db
p1649
I4860
sV\u51e1
p1650
I386
sV\u9ae7
p1651
I6102
sV\u5de9
p1652
I1400
sV\u7f6a
p1653
I4137
sV\u8870
p1654
I4825
sV\u6cf3
p1655
I2750
sV\u8e74
p1656
I5254
sV\u72f7
p1657
I3200
sV\u5176
p1658
I339
sV\u78fb
p1659
I3642
sV\u9a7c
p1660
I6054
sV\u7eff
p1661
I4064
sV\u8101
p1662
I4284
sV\u6684
p1663
I2222
sV\u6c88
p1664
I2690
sV\u560f
p1665
I801
sV\u7725
p1666
I3513
sV\u9e3f
p1667
I6221
sV\u86c4
p1668
I4721
sV\u4fca
p1669
I218
sV\u98d0
p1670
I5958
sV\u5bd2
p1671
I1229
sV\u9ed4
p1672
I6288
sV\u8559
p1673
I4642
sV\u64d8
p1674
I2061
sV\u6adc
p1675
I2560
sV\u4e5f
p1676
I62
sV\u9161
p1677
I5507
sV\u9765
p1678
I5868
sV\u76e4
p1679
I3493
sV\u9d69
p1680
I6182
sV\u636d
p1681
I1948
sV\u8bf2
p1682
I5018
sV\u7579
p1683
I3392
sV\u918b
p1684
I5531
sV\u6e0a
p1685
I2866
sV\u740e
p1686
I3277
sV\u5e95
p1687
I1477
sV\u699b
p1688
I2499
sV\u9120
p1689
I5489
sV\u9724
p1690
I5851
sV\u7ba7
p1691
I3849
sV\u5826
p1692
I940
sV\u82ad
p1693
I4414
sV\u6930
p1694
I2469
sV\u7538
p1695
I3370
sV\u59bb
p1696
I1065
sV\u7b3c
p1697
I3806
sV\u6cc9
p1698
I2725
sV\u8e4a
p1699
I5240
sV\u534c
p1700
I523
sV\u78d1
p1701
I3632
sV\u7ed5
p1702
I4030
sV\u665a
p1703
I2204
sV\u8fdf
p1704
I5356
sV\u6c5e
p1705
I2669
sV\u7262
p1706
I3152
sV\u67ef
p1707
I2366
sV\u6df3
p1708
I2860
sV\u8f74
p1709
I5293
sV\u5076
p1710
I273
sV\u79fb
p1711
I3716
sV\u8001
p1712
I4194
sV\u6180
p1713
I1750
sV\u8605
p1714
I4676
sV\u6784
p1715
I2316
sV\u8c09
p1716
I5037
sV\u6d88
p1717
I2815
sV\u510b
p1718
I302
sV\u7f94
p1719
I4155
sV\u8096
p1720
I4240
sV\u7021
p1721
I3019
sV\u51a0
p1722
I358
sV\u57a4
p1723
I908
sV\u98a6
p1724
I5950
sV\u64ae
p1725
I2050
sV\u8d33
p1726
I5125
sV\u5439
p1727
I649
sV\u7cbe
p1728
I3931
sV\u6b47
p1729
I2582
sV\u4eca
p1730
I112
sV\u54ce
p1731
I712
sV\u4f5f
p1732
I184
sV\u71e0
p1733
I3116
sV\u626d
p1734
I1827
sV\u5bfc
p1735
I1247
sV\u8683
p1736
I4706
sV\u6d0a
p1737
I2759
sV\u518d
p1738
I351
sV\u948f
p1739
I5582
sV\u9e93
p1740
I6267
sV\u6c9f
p1741
I2701
sV\u4f1e
p1742
I153
sV\u78a7
p1743
I3623
sV\u8db5
p1744
I5185
sV\u6c34
p1745
I2654
sV\u5cbf
p1746
I1325
sV\u65c5
p1747
I2139
sV\u8b46
p1748
I4942
sV\u4e48
p1749
I48
sV\u8d4a
p1750
I5146
sV\u7bd1
p1751
I3864
sV\u6f5e
p1752
I2976
sV\u55e5
p1753
I793
sV\u98e7
p1754
I5971
sV\u7b66
p1755
I3824
sV\u7d6a
p1756
I3955
sV\u8301
p1757
I4449
sV\u6280
p1758
I1837
sV\u6484
p1759
I2035
sV\u540f
p1760
I626
sV\u7c94
p1761
I3913
sV\u8f9e
p1762
I5327
sV\u52a0
p1763
I463
sV\u91a2
p1764
I5538
sV\u7525
p1765
I3356
sV\u54a4
p1766
I690
sV\u7f29
p1767
I4102
sV\u822b
p1768
I4360
sV\u5739
p1769
I866
sV\u6643
p1770
I2195
sV\u84c4
p1771
I4606
sV\u57ce
p1772
I915
sV\u59d2
p1773
I1072
sV\u8759
p1774
I4765
sV\u72e0
p1775
I3189
sV\u7ee8
p1776
I4046
sV\u616d
p1777
I1745
sV\u7779
p1778
I3540
sV\u95fa
p1779
I5713
sV\u58fc
p1780
I988
sV\u8783
p1781
I4775
sV\u4e89
p1782
I73
sV\u508d
p1783
I279
sV\u7812
p1784
I3587
sV\u8718
p1785
I4748
sV\u6b9b
p1786
I2613
sV\u6d9f
p1787
I2826
sV\u4e1e
p1788
I26
sV\u9524
p1789
I5648
sV\u79a7
p1790
I3688
sV\u612c
p1791
I1730
sV\u51b7
p1792
I370
sV\u96b9
p1793
I5807
sV\u7738
p1794
I3520
sV\u793c
p1795
I3646
sV\u8042
p1796
I4219
sV\u64c5
p1797
I2055
sV\u5b50
p1798
I1158
sV\u7cd5
p1799
I3935
sV\u8bdb
p1800
I4999
sV\u8ddf
p1801
I5202
sV\u54e5
p1802
I718
sV\u8d74
p1803
I5173
sV\u9778
p1804
I5874
sV\u997c
p1805
I6007
sV\u8201
p1806
I4343
sV\u6380
p1807
I1956
sV\u8e09
p1808
I5216
sV\u6f88
p1809
I2986
sV\u900d
p1810
I5384
sV\u550f
p1811
I733
sV\u9a11
p1812
I6034
sV\u7b90
p1813
I3840
sV\u5f13
p1814
I1520
sV\u6619
p1815
I2180
sV\u681d
p1816
I2388
sV\u8e9e
p1817
I5262
sV\u90a2
p1818
I5444
sV\u7425
p1819
I3284
sV\u9aa6
p1820
I6088
sV\u5fa8
p1821
I1581
sV\u832b
p1822
I4467
sV\u66ae
p1823
I2233
sV\u72b6
p1824
I3173
sV\u5639
p1825
I809
sV\u9b3b
p1826
I6118
sV\u7ebe
p1827
I4010
sV\u6743
p1828
I2285
sV\u8fc8
p1829
I5343
sV\u91cc
p1830
I5554
sV\u754f
p1831
I3379
sV\u67d8
p1832
I2356
sV\u73e0
p1833
I3264
sV\u9e69
p1834
I6250
sV\u606d
p1835
I1657
sV\u86ee
p1836
I4731
sV\u6a71
p1837
I2550
sV\u94fa
p1838
I5630
sV\u9efe
p1839
I6302
sV\u8083
p1840
I4232
sV\u8e87
p1841
I5259
sV\u9893
p1842
I5935
sV\u7f12
p1843
I4081
sV\u5b95
p1844
I1193
sV\u6697
p1845
I2228
sV\u8018
p1846
I4207
sV\u6c9b
p1847
I2700
sV\u7ea7
p1848
I3989
sV\u5d26
p1849
I1354
sV\u87ad
p1850
I4780
sV\u662c
p1851
I2186
sV\u8db1
p1852
I5183
sV\u8bb5
p1853
I4966
sV\u56b7
p1854
I830
sV\u65c1
p1855
I2135
sV\u63c5
p1856
I1982
sV\u8d46
p1857
I5143
sV\u77cd
p1858
I3562
sV\u914e
p1859
I5503
sV\u5c50
p1860
I1283
sV\u6556
p1861
I2089
sV\u4fdd
p1862
I225
sV\u695e
p1863
I2479
sV\u7762
p1864
I3533
sV\u53e5
p1865
I597
sV\u64eb
p1866
I2066
sV\u866c
p1867
I4696
sV\u62ef
p1868
I1898
sV\u8c70
p1869
I5090
sV\u7cfb
p1870
I3943
sV\u537a
p1871
I553
sV\u7aff
p1872
I3782
sV\u8305
p1873
I4453
sV\u6284
p1874
I1839
sV\u4e07
p1875
I7
sV\u8909
p1876
I4871
sV\u970d
p1877
I5843
sV\u7a94
p1878
I3755
sV\u58a8
p1879
I970
sV\u73ba
p1880
I3252
sV\u79be
p1881
I3695
sV\u6043
p1882
I1640
sV\u88c8
p1883
I4854
sV\u96cc
p1884
I5818
sV\u5fd2
p1885
I1598
sV\u60d8
p1886
I1698
sV\u74e0
p1887
I3336
sV\u78e8
p1888
I3635
sV\u676d
p1889
I2305
sV\u95f6
p1890
I5709
sV\u7f7d
p1891
I4144
sV\u6602
p1892
I2169
sV\u8f87
p1893
I5308
sV\u6a0a
p1894
I2527
sV\u5c91
p1895
I1308
sV\u6797
p1896
I2323
sV\u6d9b
p1897
I2824
sV\u672c
p1898
I2274
sV\u90b9
p1899
I5456
sV\u5bbf
p1900
I1220
sV\u62c5
p1901
I1869
sV\u8c46
p1902
I5080
sV\u68c9
p1903
I2441
sV\u76cd
p1904
I3480
sV\u9e52
p1905
I6234
sV\u5b54
p1906
I1160
sV\u8ddb
p1907
I5200
sV\u4edd
p1908
I124
sV\u8d70
p1909
I5172
sV\u9178
p1910
I5519
sV\u587e
p1911
I956
sV\u8401
p1912
I4552
sV\u8205
p1913
I4346
sV\u6988
p1914
I2494
sV\u960d
p1915
I5729
sV\u778c
p1916
I3546
sV\u530f
p1917
I498
sV\u9a15
p1918
I6035
sV\u7b94
p1919
I3842
sV\u6019
p1920
I1624
sV\u829a
p1921
I4403
sV\u6e1d
p1922
I2874
sV\u889e
p1923
I4842
sV\u59a8
p1924
I1058
sV\u852b
p1925
I4630
sV\u832f
p1926
I4470
sV\u6eb2
p1927
I2920
sV\u5e3d
p1928
I1444
sV\u78be
p1929
I3626
sV\u6f47
p1930
I2969
sV\u89c8
p1931
I4909
sV\u754b
p1932
I3376
sV\u7953
p1933
I3656
sV\u5ed2
p1934
I1500
sV\u9265
p1935
I5564
sV\u5f67
p1936
I1549
sV\u94f6
p1937
I5628
sV\u51f8
p1938
I394
sV\u6f06
p1939
I2951
sV\u968b
p1940
I5790
sV\u558d
p1941
I772
sV\u730e
p1942
I3205
sV\u9a93
p1943
I6073
sV\u8c1c
p1944
I5055
sV\u5522
p1945
I736
sV\u9024
p1946
I5399
sV\u5f26
p1947
I1529
sV\u592a
p1948
I1005
sV\u642c
p1949
I2013
sV\u8fb1
p1950
I5334
sV\u6834
p1951
I2392
sV\u54b7
p1952
I699
sV\u67c1
p1953
I2345
sV\u75cd
p1954
I3418
sV\u79d5
p1955
I3704
sV\u5854
p1956
I949
sV\u6756
p1957
I2296
sV\u88df
p1958
I4861
sV\u846c
p1959
I4583
sV\u60ef
p1960
I1710
sV\u8e70
p1961
I5252
sV\u74f7
p1962
I3343
sV\u7efb
p1963
I4060
sV\u9c7c
p1964
I6140
sV\u6084
p1965
I1669
sV\u500f
p1966
I244
sV\u6db2
p1967
I2836
sV\u77b6
p1968
I3558
sV\u5339
p1969
I510
sV\u5d3d
p1970
I1360
sV\u86c0
p1971
I4720
sV\u6243
p1972
I1805
sV\u80c4
p1973
I4262
sV\u6c47
p1974
I2661
sV\u704f
p1975
I3026
sV\u98d4
p1976
I5961
sV\u62d8
p1977
I1883
sV\u9761
p1978
I5866
sV\u9165
p1979
I5511
sV\u70e4
p1980
I3068
sV\u5c67
p1981
I1294
sV\u656d
p1982
I2100
sV\u4ef0
p1983
I131
sV\u97f6
p1984
I5904
sV\u6402
p1985
I2001
sV\u978b
p1986
I5876
sV\u680a
p1987
I2380
sV\u548d
p1988
I682
sV\u5e91
p1989
I1474
sV\u6597
p1990
I2114
sV\u5e26
p1991
I1433
sV\u582a
p1992
I942
sV\u55b7
p1993
I781
sV\u9cbd
p1994
I6162
sV\u60c5
p1995
I1691
sV\u78d5
p1996
I3634
sV\u5954
p1997
I1026
sV\u6656
p1998
I2203
sV\u8fdb
p1999
I5352
sV\u605a
p2000
I1648
sV\u93e3
p2001
I5571
sV\u5ae9
p2002
I1147
sV\u8f70
p2003
I5289
sV\u6bf3
p2004
I2640
sV\u8974
p2005
I4898
sV\u5676
p2006
I821
sV\u7ffb
p2007
I4190
sV\u8005
p2008
I4197
sV\u9e11
p2009
I6199
sV\u7994
p2010
I3686
sV\u809a
p2011
I4242
sV\u57a0
p2012
I905
sV\u94a2
p2013
I5591
sV\u51a4
p2014
I360
sV\u9ea6
p2015
I6272
sV\u812f
p2016
I4295
sV\u9537
p2017
I5655
sV\u5239
p2018
I431
sV\u9f3b
p2019
I6316
sV\u70ba
p2020
I3056
sV\u5c3d
p2021
I1270
sV\u87c0
p2022
I4787
sV\u6d47
p2023
I2789
sV\u4ec6
p2024
I109
sV\u8bc8
p2025
I4983
sV\u5cd2
p2026
I1328
sV\u4f5b
p2027
I181
sV\u9661
p2028
I5775
sV\u9065
p2029
I5422
sV\u7be8
p2030
I3874
sV\u96f6
p2031
I5831
sV\u7279
p2032
I3160
sV\u53f8
p2033
I614
sV\u6106
p2034
I1718
sV\u9e8f
p2035
I6264
sV\u9493
p2036
I5583
sV\u6a97
p2037
I2556
sV\u4f1a
p2038
I151
sV\u821c
p2039
I4354
sV\u8bad
p2040
I4959
sV\u87b5
p2041
I4784
sV\u6634
p2042
I2189
sV\u7c38
p2043
I3897
sV\u69c1
p2044
I2511
sV\u6956
p2045
I2475
sV\u86df
p2046
I4728
sV\u655e
p2047
I2093
sV\u9ce3
p2048
I6174
sV\u7166
p2049
I3092
sV\u68eb
p2050
I2453
sV\u5976
p2051
I1039
sV\u557e
p2052
I763
sV\u9b0d
p2053
I6110
sV\u5e0f
p2054
I1418
sV\u5413
p2055
I630
sV\u6d19
p2056
I2764
sV\u631d
p2057
I1917
sV\u58a0
p2058
I968
sV\u7f25
p2059
I4098
sV\u7529
p2060
I3359
sV\u54a8
p2061
I692
sV\u8e2f
p2062
I5230
sV\u903b
p2063
I5406
sV\u963f
p2064
I5758
sV\u75be
p2065
I3413
sV\u88c0
p2066
I4850
sV\u6247
p2067
I1807
sV\u90d0
p2068
I5466
sV\u8d59
p2069
I5159
sV\u62dc
p2070
I1887
sV\u5c63
p2071
I1291
sV\u5267
p2072
I448
sV\u83f2
p2073
I4546
sV\u6775
p2074
I2310
sV\u5cf8
p2075
I1339
sV\u95fe
p2076
I5717
sV\u6006
p2077
I1617
sV\u998b
p2078
I6016
sV\u660a
p2079
I2172
sV\u4e1a
p2080
I22
sV\u831c
p2081
I4463
sV\u5026
p2082
I254
sV\u6b2c
p2083
I2571
sV\u4faf
p2084
I212
sV\u80b1
p2085
I4254
sV\u6734
p2086
I2279
sV\u51bb
p2087
I371
sV\u68c1
p2088
I2438
sV\u8046
p2089
I4221
sV\u64c9
p2090
I2056
sV\u8bd7
p2091
I4995
sV\u54e9
p2092
I721
sV\u8b6c
p2093
I4944
sV\u6fef
p2094
I3011
sV\u8170
p2095
I4311
sV\u8774
p2096
I4770
sV\u7bf7
p2097
I3880
sV\u77ff
p2098
I3580
sV\u8801
p2099
I4801
sV\u6f84
p2100
I2985
sV\u5f0f
p2101
I1519
sV\u9011
p2102
I5387
sV\u9615
p2103
I5737
sV\u8896
p2104
I4840
sV\u9aa2
p2105
I6085
sV\u90a6
p2106
I5446
sV\u892b
p2107
I4882
sV\u6cae
p2108
I2711
sV\u5c39
p2109
I1267
sV\u7eba
p2110
I4007
sV\u6d43
p2111
I2786
sV\u8fc4
p2112
I5340
sV\u91d0
p2113
I5558
sV\u52d2
p2114
I484
sV\u6dd8
p2115
I2849
sV\u63dc
p2116
I1989
sV\u9e65
p2117
I6247
sV\u5367
p2118
I541
sV\u98f6
p2119
I5974
sV\u7c79
p2120
I3908
sV\u94fe
p2121
I5631
sV\u8087
p2122
I4235
sV\u9a8b
p2123
I6067
sV\u598d
p2124
I1050
sV\u7f0e
p2125
I4078
sV\u6897
p2126
I2426
sV\u8e18
p2127
I5220
sV\u629b
p2128
I1852
sV\u801c
p2129
I4209
sV\u7ea3
p2130
I3985
sV\u5326
p2131
I507
sV\u83b1
p2132
I4523
sV\u6230
p2133
I1795
sV\u6434
p2134
I2015
sV\u52bb
p2135
I475
sV\u91bd
p2136
I5548
sV\u703c
p2137
I3023
sV\u54bf
p2138
I703
sV\u6bc1
p2139
I2622
sV\u6dc5
p2140
I2843
sV\u8346
p2141
I4480
sV\u854a
p2142
I4640
sV\u79cd
p2143
I3701
sV\u584c
p2144
I946
sV\u73d1
p2145
I3261
sV\u5250
p2146
I441
sV\u9152
p2147
I5504
sV\u75d5
p2148
I3421
sV\u82db
p2149
I4435
sV\u6d5a
p2150
I2802
sV\u84df
p2151
I4614
sV\u675e
p2152
I2298
sV\u5be1
p2153
I1237
sV\u7962
p2154
I3668
sV\u5de5
p2155
I1396
sV\u90e7
p2156
I5476
sV\u7366
p2157
I3228
sV\u756a
p2158
I3387
sV\u886c
p2159
I4823
sV\u6cef
p2160
I2747
sV\u8270
p2161
I4390
sV\u66f3
p2162
I2248
sV\u78f7
p2163
I3639
sV\u74ff
p2164
I3345
sV\u6a80
p2165
I2553
sV\u4e03
p2166
I6
sV\u6c84
p2167
I2687
sV\u8709
p2168
I4740
sV\u990d
p2169
I5977
sV\u788c
p2170
I3612
sV\u5c0f
p2171
I1254
sV\u6f19
p2172
I2958
sV\u4e98
p2173
I82
sV\u7729
p2174
I3516
sV\u8c2f
p2175
I5071
sV\u5f39
p2176
I1536
sV\u6e43
p2177
I2888
sV\u60dc
p2178
I1700
sV\u7ae0
p2179
I3773
sV\u9769
p2180
I5869
sV\u8fee
p2181
I5366
sV\u6371
p2182
I1950
sV\u7f79
p2183
I4143
sV\u717d
p2184
I3097
sV\u97fe
p2185
I5905
sV\u8f83
p2186
I5304
sV\u6206
p2187
I1773
sV\u640a
p2188
I2004
sV\u659f
p2189
I2119
sV\u88ad
p2190
I4846
sV\u82b1
p2191
I4418
sV\u9eb9
p2192
I6279
sV\u7f38
p2193
I4115
sV\u53bb
p2194
I574
sV\u6cc5
p2195
I2724
sV\u9052
p2196
I5417
sV\u4ed9
p2197
I123
sV\u85df
p2198
I4670
sV\u665e
p2199
I2205
sV\u5ae1
p2200
I1144
sV\u5ce5
p2201
I1333
sV\u6beb
p2202
I2638
sV\u67f3
p2203
I2369
sV\u8574
p2204
I4649
sV\u5c7a
p2205
I1299
sV\u8c05
p2206
I5035
sV\u601d
p2207
I1627
sV\u5ba0
p2208
I1202
sV\u98a2
p2209
I5947
sV\u8d2f
p2210
I5121
sV\u60b2
p2211
I1687
sV\u8bc0
p2212
I4976
sV\u8dc4
p2213
I5191
sV\u7b4b
p2214
I3810
sV\u8e59
p2215
I5245
sV\u7be0
p2216
I3870
sV\u9669
p2217
I5780
sV\u96fe
p2218
I5834
sV\u6f02
p2219
I2950
sV\u9c8b
p2220
I6145
sV\u9a8f
p2221
I6070
sV\u5591
p2222
I774
sV\u9093
p2223
I5438
sV\u629f
p2224
I1853
sV\u78a3
p2225
I3622
sV\u5f22
p2226
I1527
sV\u532a
p2227
I508
sV\u6234
p2228
I1797
sV\u5eb7
p2229
I1494
sV\u7838
p2230
I3596
sV\u54bb
p2231
I701
sV\u763c
p2232
I3445
sV\u52bf
p2233
I478
sV\u6bc5
p2234
I2624
sV\u5e4c
p2235
I1448
sS'<eos>'
p2236
I1
sV\u5450
p2237
I658
sV\u9752
p2238
I5860
sV\u5254
p2239
I443
sV\u82df
p2240
I4438
sV\u5de1
p2241
I1394
sV\u7f62
p2242
I4132
sV\u5be5
p2243
I1239
sV\u7566
p2244
I3386
sV\u6ceb
p2245
I2744
sV\u8e6c
p2246
I5249
sV\u60f3
p2247
I1712
sV\u7ef7
p2248
I4058
sV\u9878
p2249
I5914
sV\u74fb
p2250
I3344
sV\u5b7a
p2251
I1180
sV\u6a84
p2252
I2554
sV\u8109
p2253
I4287
sV\u9f0d
p2254
I6304
sV\u9511
p2255
I5642
sV\u671d
p2256
I2268
sV\u7b25
p2257
I3797
sV\u50a8
p2258
I283
sV\u69ae
p2259
I2504
sV\u8033
p2260
I4213
sV\u67b2
p2261
I2337
sV\u9e37
p2262
I6218
sV\u5939
p2263
I1014
sV\u6843
p2264
I2403
sV\u57d2
p2265
I917
sV\u68d8
p2266
I2447
sV\u66dc
p2267
I2241
sV\u7ce0
p2268
I3940
sV\u9169
p2269
I5512
sV\u6f6d
p2270
I2979
sV\u4eec
p2271
I130
sV\u777d
p2272
I3542
sV\u8983
p2273
I4901
sV\u620a
p2274
I1775
sV\u659b
p2275
I2116
sV\u871c
p2276
I4750
sV\u77a7
p2277
I3551
sV\u5426
p2278
I638
sV\u5fb7
p2279
I1588
sV\u55bb
p2280
I782
sV\u96bd
p2281
I5809
sV\u773c
p2282
I3522
sV\u53bf
p2283
I575
sV\u8446
p2284
I4574
sV\u7ecd
p2285
I4025
sV\u5550
p2286
I751
sV\u83df
p2287
I4541
sV\u5ce1
p2288
I1330
sV\u97e7
p2289
I5897
sV\u6deb
p2290
I2855
sV\u8f6c
p2291
I5285
sV\u6bef
p2292
I2639
sV\u5a7a
p2293
I1120
sV\u8c01
p2294
I5031
sV\u6b84
p2295
I2603
sV\u7f8c
p2296
I4152
sV\u5ba4
p2297
I1206
sV\u94a6
p2298
I5594
sV\u8d2b
p2299
I5117
sV\u4e2d
p2300
I34
sV\u9f37
p2301
I6315
sV\u953b
p2302
I5659
sV\u8bc4
p2303
I4980
sV\u7b4f
p2304
I3812
sV\u4f57
p2305
I178
sV\u8859
p2306
I4815
sV\u67dc
p2307
I2359
sV\u9afa
p2308
I6107
sV\u767d
p2309
I3451
sV\u8487
p2310
I4591
sV\u9e8b
p2311
I6263
sV\u5195
p2312
I353
sV\u609f
p2313
I1677
sV\u9e20
p2314
I6201
sV\u7aa3
p2315
I3763
sV\u74a7
p2316
I3326
sV\u4eab
p2317
I94
sV\u5cb7
p2318
I1323
sV\u9bb9
p2319
I6136
sV\u743c
p2320
I3296
sV\u63c9
p2321
I1984
sV\u814a
p2322
I4300
sV\u9552
p2323
I5671
sV\u71d5
p2324
I3115
sV\u86db
p2325
I4727
sV\u695a
p2326
I2477
sV\u635e
p2327
I1942
sV\u59e5
p2328
I1080
sV\u7766
p2329
I3536
sV\u53e9
p2330
I600
sV\u6eeb
p2331
I2947
sV\u62f3
p2332
I1900
sV\u9a78
p2333
I6050
sV\u8309
p2334
I4456
sV\u5213
p2335
I411
sV\u8f96
p2336
I5321
sV\u839e
p2337
I4518
sV\u5ea0
p2338
I1485
sV\u97a6
p2339
I5884
sV\u7329
p2340
I3213
sV\u52a8
p2341
I466
sV\u91aa
p2342
I5540
sV\u8233
p2343
I4365
sV\u963b
p2344
I5756
sV\u79ba
p2345
I3692
sV\u6447
p2346
I2021
sV\u9ccc
p2347
I6167
sV\u7253
p2348
I3144
sV\u855d
p2349
I4643
sV\u7ee0
p2350
I4039
sV\u9965
p2351
I5991
sV\u72e8
p2352
I3191
sV\u8bee
p2353
I5014
sV\u6175
p2354
I1747
sV\u7b79
p2355
I3831
sV\u54fc
p2356
I728
sV\u8587
p2357
I4653
sV\u6606
p2358
I2171
sV\u600a
p2359
I1618
sV\u7a0e
p2360
I3722
sV\u4e16
p2361
I19
sV\u9f20
p2362
I6312
sV\u5c22
p2363
I1261
sV\u502a
p2364
I256
sV\u86b1
p2365
I4719
sV\u5db7
p2366
I1384
sV\u9ab9
p2367
I6094
sV\u6ec1
p2368
I2926
sV\u8646
p2369
I4686
sV\u62c9
p2370
I1872
sV\u804a
p2371
I4222
sV\u5d4c
p2372
I1365
sV\u9a4e
p2373
I6037
sV\u76d1
p2374
I3484
sV\u5750
p2375
I875
sV\u5154
p2376
I322
sV\u8dd7
p2377
I5198
sV\u6e56
p2378
I2896
sV\u625e
p2379
I1819
sV\u8174
p2380
I4312
sV\u5e76
p2381
I1461
sV\u77fb
p2382
I3579
sV\u6984
p2383
I2491
sV\u6388
p2384
I1958
sV\u5f0b
p2385
I1518
sV\u590f
p2386
I992
sV\u9611
p2387
I5733
sV\u7194
p2388
I3102
sV\u9ca2
p2389
I6153
sV\u7825
p2390
I3592
sV\u59a4
p2391
I1056
sV\u53a8
p2392
I571
sV\u90aa
p2393
I5448
sV\u7eb6
p2394
I4003
sV\u543d
p2395
I652
sV\u6b43
p2396
I2580
sV\u89c4
p2397
I4905
sV\u9e61
p2398
I6243
sV\u7fe0
p2399
I4180
sV\u5b63
p2400
I1171
sV\u79e4
p2401
I3708
sV\u5567
p2402
I757
sV\u7a79
p2403
I3744
sV\u5bf8
p2404
I1243
sV\u747d
p2405
I3311
sV\u9a87
p2406
I6064
sV\u808b
p2407
I4237
sV\u7f0a
p2408
I4075
sV\u789b
p2409
I3619
sV\u8c28
p2410
I5065
sV\u50ab
p2411
I285
sV\u4f2a
p2412
I159
sV\u722c
p2413
I3126
sV\u5cb3
p2414
I1321
sV\u8bbd
p2415
I4973
sV\u4ebf
p2416
I103
sV\u5c48
p2417
I1278
sV\u4e54
p2418
I56
sV\u92d7
p2419
I5568
sV\u7156
p2420
I3088
sV\u98db
p2421
I5968
sV\u5bdd
p2422
I1234
sV\u9edf
p2423
I6293
sV\u6362
p2424
I1944
sV\u70eb
p2425
I3071
sV\u556e
p2426
I759
sV\u7080
p2427
I3038
sV\u5403
p2428
I617
sV\u9705
p2429
I5839
sV\u7684
p2430
I3454
sV\u5a07
p2431
I1092
sV\u9196
p2432
I5536
sV\u979a
p2433
I5880
sV\u6d29
p2434
I2772
sV\u75ae
p2435
I3405
sV\u5931
p2436
I1010
sV\u8237
p2437
I4369
sV\u53c2
p2438
I577
sV\u96c4
p2439
I5813
sV\u59c6
p2440
I1067
sV\u604b
p2441
I1641
sV\u664f
p2442
I2199
sV\u74d8
p2443
I3332
sV\u60e0
p2444
I1702
sV\u6ce8
p2445
I2742
sV\u736d
p2446
I3230
sV\u95ee
p2447
I5701
sV\u58f0
p2448
I984
sV\u87fa
p2449
I4799
sV\u818b
p2450
I4320
sV\u4e95
p2451
I81
sV\u5016
p2452
I247
sV\u8d28
p2453
I5114
sV\u4e2a
p2454
I32
sV\u732c
p2455
I3216
sV\u7f34
p2456
I4112
sV\u84b9
p2457
I4600
sV\u6538
p2458
I2076
sV\u4fbf
p2459
I215
sV\u70c1
p2460
I3059
sV\u5140
p2461
I310
sV\u76c5
p2462
I3474
sV\u9e4a
p2463
I6230
sV\u62cd
p2464
I1875
sV\u6ed5
p2465
I2935
sV\u7c5e
p2466
I3905
sV\u6262
p2467
I1820
sV\u6866
p2468
I2415
sV\u9970
p2469
I5999
sV\u9001
p2470
I5375
sV\u9605
p2471
I5723
sV\u820d
p2472
I4349
sV\u638c
p2473
I1961
sV\u5598
p2474
I776
sV\u5b9c
p2475
I1199
sV\u6021
p2476
I1629
sV\u6625
p2477
I2183
sV\u6cbe
p2478
I2721
sV\u7b47
p2479
I3808
sV\u5eca
p2480
I1498
sV\u83cc
p2481
I4536
sV\u674f
p2482
I2291
sV\u89d0
p2483
I4915
sV\u6d53
p2484
I2798
sV\u8fd4
p2485
I5349
sV\u5357
p2486
I532
sV\u75d8
p2487
I3422
sV\u8c69
p2488
I5086
sV\u53ec
p2489
I603
sV\u94ee
p2490
I5625
sV\u80f6
p2491
I4281
sV\u6479
p2492
I2033
sV\u9887
p2493
I5927
sV\u5f89
p2494
I1569
sV\u828b
p2495
I4397
sV\u7d0a
p2496
I3945
sV\u6912
p2497
I2466
sV\u5316
p2498
I500
sV\u7c9f
p2499
I3918
sV\u8220
p2500
I4357
sV\u8424
p2501
I4564
sV\u68a7
p2502
I2429
sV\u52ab
p2503
I469
sV\u91ad
p2504
I5541
sV\u5eb3
p2505
I1491
sV\u7c34
p2506
I3896
sV\u683c
p2507
I2397
sV\u9142
p2508
I5496
sV\u75c5
p2509
I3414
sV\u874e
p2510
I4763
sV\u90d7
p2511
I5469
sV\u57d9
p2512
I921
sV\u59dd
p2513
I1077
sV\u6162
p2514
I1742
sV\u6b66
p2515
I2594
sV\u4fe9
p2516
I231
sV\u6d6a
p2517
I2807
sV\u74ef
p2518
I3341
sV\u9a70
p2519
I6043
sV\u7ef3
p2520
I4054
sV\u4f7e
p2521
I191
sV\u7280
p2522
I3162
sV\u9505
p2523
I5637
sV\u5807
p2524
I933
sV\u810d
p2525
I4289
sV\u608c
p2526
I1671
sV\u6a90
p2527
I2555
sV\u4e13
p2528
I16
sV\u6c94
p2529
I2697
sV\u6321
p2530
I1921
sV\u6525
p2531
I2072
sV\u6f29
p2532
I2961
sV\u4ea8
p2533
I92
sV\u9e33
p2534
I6216
sV\u8c3f
p2535
I5078
sV\u94c4
p2536
I5606
sV\u5bc6
p2537
I1225
sV\u624b
p2538
I1810
sV\u80cc
p2539
I4264
sV\u644f
p2540
I2024
sV\u6e53
p2541
I2894
sV\u9759
p2542
I5863
sV\u76d8
p2543
I3489
sV\u5c5f
p2544
I1288
sV\u8361
p2545
I4496
sV\u8f69
p2546
I5283
sV\u6ee8
p2547
I2944
sV\u7b71
p2548
I3827
sV\u858f
p2549
I4654
sV\u660e
p2550
I2174
sV\u8f93
p2551
I5318
sV\u5216
p2552
I412
sV\u67a3
p2553
I2328
sV\u9cb5
p2554
I6159
sV\u72c1
p2555
I3177
sV\u9042
p2556
I5410
sV\u5544
p2557
I748
sV\u7ec9
p2558
I4021
sV\u864e
p2559
I4687
sV\u8852
p2560
I4812
sV\u6cd5
p2561
I2730
sV\u7256
p2562
I3145
sV\u745a
p2563
I3304
sV\u9ddf
p2564
I6192
sV\u6062
p2565
I1649
sV\u6a66
p2566
I2548
sV\u6c6a
p2567
I2676
sV\u916c
p2568
I5514
sV\u7ff3
p2569
I4189
sV\u4e7e
p2570
I69
sV\u5703
p2571
I850
sV\u5907
p2572
I990
sV\u800d
p2573
I4202
sV\u8c15
p2574
I5049
sV\u6d94
p2575
I2821
sV\u781d
p2576
I3591
sV\u6221
p2577
I1789
sV\u80a2
p2578
I4246
sV\u6e29
p2579
I2880
sV\u4fa8
p2580
I207
sV\u502d
p2581
I258
sV\u952f
p2582
I5652
sV\u76ae
p2583
I3469
sV\u5a31
p2584
I1103
sV\u8d3f
p2585
I5137
sV\u7947
p2586
I3650
sV\u634b
p2587
I1936
sV\u654f
p2588
I2085
sV\u8bd0
p2589
I4990
sV\u5b5b
p2590
I1167
sV\u706d
p2591
I3029
sV\u5bf0
p2592
I1242
sV\u5df4
p2593
I1406
sV\u6679
p2594
I2217
sV\u9083
p2595
I5433
sV\u5385
p2596
I557
sV\u9e87
p2597
I6261
sV\u848b
p2598
I4593
sV\u7a9f
p2599
I3761
sV\u60a3
p2600
I1679
sV\u54ab
p2601
I695
sV\u97ad
p2602
I5886
sV\u9db1
p2603
I6187
sV\u8fbd
p2604
I5336
sV\u6e3c
p2605
I2887
sV\u5440
p2606
I654
sV\u79c9
p2607
I3699
sV\u6dd1
p2608
I2848
sV\u6bd5
p2609
I2631
sV\u5fdd
p2610
I1603
sV\u795e
p2611
I3665
sV\u6d66
p2612
I2805
sV\u6b6a
p2613
I2596
sV\u966c
p2614
I5782
sV\u72ef
p2615
I3196
sV\u516e
p2616
I333
sV\u9a74
p2617
I6046
sV\u66f7
p2618
I2251
sV\u6cfb
p2619
I2753
sV\u9501
p2620
I5634
sV\u7480
p2621
I3313
sV\u7284
p2622
I3165
sV\u9909
p2623
I5976
sV\u870d
p2624
I4742
sV\u668c
p2625
I2224
sV\u6c90
p2626
I2695
sV\u7119
p2627
I3078
sV\u5098
p2628
I280
sV\u7f1d
p2629
I4092
sV\u5e9c
p2630
I1482
sV\u6325
p2631
I1924
sV\u8baa
p2632
I4956
sV\u572d
p2633
I862
sV\u5d31
p2634
I1359
sV\u9833
p2635
I5907
sV\u7fb2
p2636
I4162
sV\u63ba
p2637
I1978
sV\u4f3d
p2638
I169
sV\u7e47
p2639
I3972
sV\u6853
p2640
I2409
sV\u70d8
p2641
I3062
sV\u7edc
p2642
I4036
sV\u8561
p2643
I4645
sV\u8365
p2644
I4499
sV\u68e8
p2645
I2452
sV\u5cf0
p2646
I1338
sV\u7b75
p2647
I3830
sV\u5889
p2648
I962
sV\u600e
p2649
I1620
sV\u521a
p2650
I416
sV\u581e
p2651
I936
sV\u6fa7
p2652
I2993
sV\u5540
p2653
I745
sV\u9642
p2654
I5760
sV\u5948
p2655
I1020
sV\u8e52
p2656
I5244
sV\u7456
p2657
I3301
sV\u81e3
p2658
I4332
sV\u75eb
p2659
I3426
sV\u6a6a
p2660
I2549
sV\u5e72
p2661
I1458
sV\u67f7
p2662
I2371
sV\u6dfb
p2663
I2863
sV\u8f7c
p2664
I5299
sV\u7384
p2665
I3234
sV\u678c
p2666
I2319
sV\u8c11
p2667
I5045
sV\u9496
p2668
I5584
sV\u5f9c
p2669
I1579
sV\u6225
p2670
I1791
sV\u6829
p2671
I2390
sV\u70ae
p2672
I3050
sV\u5c31
p2673
I1265
sV\u7eb2
p2674
I4000
sV\u8737
p2675
I4754
sV\u8d3b
p2676
I5133
sV\u4e3d
p2677
I42
sV\u634f
p2678
I1939
sV\u8bd4
p2679
I4993
sV\u5757
p2680
I877
sV\u5b5f
p2681
I1170
sV\u8461
p2682
I4579
sV\u65e0
p2683
I2153
sV\u8869
p2684
I4821
sV\u69e8
p2685
I2522
sV\u6079
p2686
I1663
sV\u88fe
p2687
I4870
sV\u5185
p2688
I347
sV\u7f06
p2689
I4071
sV\u5b89
p2690
I1188
sV\u868b
p2691
I4708
sV\u630e
p2692
I1912
sV\u4f91
p2693
I199
sV\u8a93
p2694
I4936
sV\u6d12
p2695
I2762
sV\u5716
p2696
I855
sV\u7e9b
p2697
I3981
sV\u789f
p2698
I3620
sV\u6ca7
p2699
I2707
sV\u4f26
p2700
I158
sV\u742c
p2701
I3288
sV\u5ab3
p2702
I1129
sV\u7834
p2703
I3595
sV\u83b9
p2704
I4527
sV\u5640
p2705
I812
sV\u9542
p2706
I5662
sV\u6fd1
p2707
I3003
sV\u4e50
p2708
I55
sV\u94d7
p2709
I5612
sV\u53d9
p2710
I591
sV\u9edb
p2711
I6290
sV\u5ddd
p2712
I1392
sV\u98df
p2713
I5970
sV\u82e3
p2714
I4440
sV\u6562
p2715
I2094
sV\u6f66
p2716
I2978
sV\u536e
p2717
I544
sV\u9e70
p2718
I6256
sV\u9701
p2719
I5836
sV\u5203
p2720
I402
sV\u7a88
p2721
I3751
sV\u6e90
p2722
I2910
sV\u5f31
p2723
I1534
sV\u67b6
p2724
I2339
sV\u61ba
p2725
I1759
sV\u96c0
p2726
I5811
sV\u90c4
p2727
I5460
sV\u5fc6
p2728
I1593
sV\u664b
p2729
I2197
sV\u59ca
p2730
I1068
sV\u88d4
p2731
I4856
sV\u5457
p2732
I661
sV\u5e5b
p2733
I1451
sV\u7cdc
p2734
I3938
sV\u8165
p2735
I4309
sV\u8bfe
p2736
I5029
sV\u5085
p2737
I278
sV\u7e06
p2738
I3965
sV\u818f
p2739
I4321
sV\u620e
p2740
I1778
sV\u4e91
p2741
I78
sV\u7597
p2742
I3400
sV\u501a
p2743
I250
sV\u63a3
p2744
I1970
sV\u6da7
p2745
I2831
sV\u4e26
p2746
I30
sV\u57ab
p2747
I911
sV\u752c
p2748
I3362
sV\u51af
p2749
I363
sV\u7f30
p2750
I4109
sV\u5bb3
p2751
I1212
sV\u7934
p2752
I3644
sV\u82b9
p2753
I4422
sV\u6d3c
p2754
I2781
sV\u5740
p2755
I869
sV\u5144
p2756
I313
sV\u9e46
p2757
I6226
sV\u64cd
p2758
I2057
sV\u824e
p2759
I4377
sV\u6ed1
p2760
I2932
sV\u4f50
p2761
I174
sV\u68d5
p2762
I2445
sV\u7656
p2763
I3447
sV\u8de7
p2764
I5204
sV\u77eb
p2765
I3572
sV\u956c
p2766
I5684
sV\u9974
p2767
I6002
sV\u65f7
p2768
I2165
sV\u8378
p2769
I4508
sV\u69ff
p2770
I2526
sV\u9601
p2771
I5720
sV\u9005
p2772
I5379
sV\u7184
p2773
I3099
sV\u5d07
p2774
I1344
sV\u840d
p2775
I4558
sV\u6994
p2776
I2496
sV\u5398
p2777
I564
sV\u9a9e
p2778
I6082
sV\u6025
p2779
I1630
sV\u542d
p2780
I643
sV\u5e31
p2781
I1438
sV\u7cb2
p2782
I3926
sV\u5835
p2783
I944
sV\u8537
p2784
I4632
sV\u54c2
p2785
I706
sV\u9bc8
p2786
I6138
sV\u58ca
p2787
I976
sV\u8fd0
p2788
I5346
sV\u7ddc
p2789
I3964
sV\u6279
p2790
I1833
sV\u6c7d
p2791
I2682
sV\u5981
p2792
I1043
sV\u5f85
p2793
I1566
sV\u5589
p2794
I769
sV\u888b
p2795
I4836
sV\u770a
p2796
I3508
sV\u7a97
p2797
I3758
sV\u5916
p2798
I996
sV\u6ca3
p2799
I2703
sV\u8428
p2800
I4568
sV\u5eaf
p2801
I1490
sV\u7030
p2802
I3021
sV\u54b3
p2803
I698
sV\u7634
p2804
I3443
sV\u6c38
p2805
I2656
sV\u83bd
p2806
I4530
sV\u79c1
p2807
I3697
sV\u9b42
p2808
I6121
sV\u7fc5
p2809
I4169
sV\u5e44
p2810
I1446
sV\u9146
p2811
I5497
sV\u5448
p2812
I656
sV\u6bcd
p2813
I2626
sV\u8d4e
p2814
I5150
sV\u61d1
p2815
I1765
sV\u8352
p2816
I4487
sV\u7956
p2817
I3659
sV\u90db
p2818
I5470
sV\u7f5a
p2819
I4127
sV\u6b62
p2820
I2590
sV\u676a
p2821
I2304
sV\u9a6c
p2822
I6039
sV\u7eef
p2823
I4052
sV\u9070
p2824
I5426
sV\u8c78
p2825
I5092
sV\u66ff
p2826
I2255
sV\u5207
p2827
I404
sV\u9509
p2828
I5639
sV\u7488
p2829
I3318
sV\u8111
p2830
I4292
sV\u8715
p2831
I4746
sV\u9996
p2832
I6023
sV\u5c98
p2833
I1312
sV\u9f9a
p2834
I6332
sV\u731d
p2835
I3211
sV\u8ba2
p2836
I4949
sV\u4ea4
p2837
I88
sV\u5b2d
p2838
I1155
sV\u9e2f
p2839
I6212
sV\u73b2
p2840
I3249
sV\u803b
p2841
I4216
sV\u65be
p2842
I2133
sV\u5bc2
p2843
I1222
sV\u9ec4
p2844
I6282
sV\u7247
p2845
I3138
sV\u51c6
p2846
I376
sV\u5a57
p2847
I1113
sV\u68e0
p2848
I2450
sV\u6ee4
p2849
I2942
sV\u50f0
p2850
I296
sV\u56f4
p2851
I842
sV\u5881
p2852
I959
sV\u8f8f
p2853
I5315
sV\u6c0e
p2854
I2645
sV\u6212
p2855
I1782
sV\u7b97
p2856
I3845
sV\u719b
p2857
I3104
sV\u5e1a
p2858
I1427
sV\u541e
p2859
I635
sV\u6da3
p2860
I2828
sV\u63a7
p2861
I1972
sV\u59ab
p2862
I1061
sV\u7b2c
p2863
I3800
sV\u5faf
p2864
I1586
sV\u90b1
p2865
I5452
sV\u7130
p2866
I3083
sV\u55b3
p2867
I780
sV\u82bd
p2868
I4423
sV\u633c
p2869
I1931
sV\u78c1
p2870
I3627
sV\u7ec5
p2871
I4017
sV\u60d1
p2872
I1696
sV\u8252
p2873
I4379
sV\u5cd9
p2874
I1329
sV\u745e
p2875
I3307
sV\u8de3
p2876
I5203
sV\u4ee5
p2877
I128
sV\u79eb
p2878
I3712
sV\u5272
p2879
I452
sV\u9774
p2880
I5872
sV\u837c
p2881
I4510
sV\u67ff
p2882
I2374
sV\u7980
p2883
I3679
sV\u5d03
p2884
I1342
sV\u4f0f
p2885
I144
sV\u9896
p2886
I5937
sV\u9e9a
p2887
I6268
sV\u949e
p2888
I5589
sV\u6821
p2889
I2389
sV\u6e25
p2890
I2879
sV\u86aa
p2891
I4716
sV\u9f2f
p2892
I6314
sV\u7cae
p2893
I3923
sV\u6eba
p2894
I2924
sV\u873f
p2895
I4757
sV\u7d43
p2896
I3952
sV\u5ac2
p2897
I1134
sV\u56ca
p2898
I832
sV\u8bcc
p2899
I4987
sV\u5b57
p2900
I1163
sV\u575f
p2901
I882
sV\u8861
p2902
I4816
sV\u69e0
p2903
I2521
sV\u8469
p2904
I4581
sV\u65e8
p2905
I2158
sV\u51f0
p2906
I391
sV\u57f4
p2907
I926
sV\u6c79
p2908
I2681
sV\u5b81
p2909
I1182
sV\u8693
p2910
I4710
sV\u7897
p2911
I3618
sV\u5d1a
p2912
I1350
sV\u571e
p2913
I857
sV\u8c24
p2914
I5061
sV\u7230
p2915
I3128
sV\u7434
p2916
I3293
sV\u8fb9
p2917
I5335
sV\u6e38
p2918
I2885
sV\u603c
p2919
I1637
sV\u7bc1
p2920
I3860
sV\u5a40
p2921
I1108
sV\u954a
p2922
I5667
sV\u8152
p2923
I4304
sV\u98d7
p2924
I5964
sV\u7b56
p2925
I3817
sV\u5fd9
p2926
I1602
sV\u51dd
p2927
I384
sV\u80e7
p2928
I4275
sV\u64ff
p2929
I2068
sV\u5e03
p2930
I1413
sV\u7688
p2931
I3457
sV\u8311
p2932
I4459
sV\u7f19
p2933
I4088
sV\u509c
p2934
I281
sV\u979e
p2935
I5881
sV\u6b21
p2936
I2566
sV\u6d25
p2937
I2769
sV\u85aa
p2938
I4660
sV\u592d
p2939
I1007
sV\u9633
p2940
I5752
sV\u823b
p2941
I4372
sV\u9ac0
p2942
I6096
sV\u9cc4
p2943
I6164
sV\u53c6
p2944
I578
sV\u4fce
p2945
I219
sV\u6653
p2946
I2201
sV\u7ed8
p2947
I4032
sV\u915d
p2948
I5505
sV\u70dc
p2949
I3065
sV\u66e8
p2950
I2244
sV\u796d
p2951
I3672
sV\u58ec
p2952
I982
sV\u52f0
p2953
I488
sV\u8dfa
p2954
I5213
sV\u87fe
p2955
I4800
sV\u9f83
p2956
I6324
sV\u7802
p2957
I3583
sV\u9187
p2958
I5528
sV\u7206
p2959
I3121
sV\u740a
p2960
I3276
sV\u6e0e
p2961
I2869
sV\u8793
p2962
I4777
sV\u6012
p2963
I1621
sV\u739b
p2964
I3241
sV\u5c1a
p2965
I1259
sV\u911c
p2966
I5487
sV\u759f
p2967
I3402
sV\u8d24
p2968
I5110
sV\u61a7
p2969
I1755
sV\u5bab
p2970
I1210
sV\u94b5
p2971
I5600
sV\u7ac1
p2972
I3767
sV\u5b40
p2973
I1157
sV\u7cc5
p2974
I3933
sV\u68cd
p2975
I2443
sV\u8052
p2976
I4225
sV\u5ed9
p2977
I1503
sV\u6862
p2978
I2412
sV\u81e7
p2979
I4333
sV\u996c
p2980
I5995
sV\u77f3
p2981
I3577
sV\u8f78
p2982
I5295
sV\u7b80
p2983
I3835
sV\u5f03
p2984
I1514
sV\u9c05
p2985
I6139
sV\u9a96
p2986
I6075
sV\u5f98
p2987
I1577
sV\u519c
p2988
I357
sV\u6a21
p2989
I2532
sV\u82a6
p2990
I4410
sV\u84aa
p2991
I4597
sV\u7eae
p2992
I3996
sV\u5435
p2993
I647
sV\u8937
p2994
I4886
sV\u4e39
p2995
I39
sV\u66be
p2996
I2235
sV\u89cc
p2997
I4912
sV\u6d4f
p2998
I2794
sV\u4ece
p2999
I115
sV\u6753
p3000
I2294
sV\u5957
p3001
I1029
sV\u9e59
p3002
I6239
sV\u7fd8
p3003
I4175
sV\u4f63
p3004
I186
sV\u6de4
p3005
I2854
sV\u59ec
p3006
I1082
sV\u53f0
p3007
I607
sV\u4ff8
p3008
I239
sV\u607d
p3009
I1667
sV\u86fe
p3010
I4735
sV\u9883
p3011
I5923
sV\u7f02
p3012
I4067
sV\u5b85
p3013
I1185
sV\u5189
p3014
I349
sV\u730a
p3015
I3204
sV\u4f8d
p3016
I197
sV\u690e
p3017
I2464
sV\u8093
p3018
I4239
sV\u5d16
p3019
I1349
sV\u961c
p3020
I5743
sV\u729f
p3021
I3169
sV\u8c20
p3022
I5057
sV\u66a7
p3023
I2231
sV\u8028
p3024
I4211
sV\u5cab
p3025
I1318
sV\u7430
p3026
I3291
sV\u6838
p3027
I2394
sV\u87bd
p3028
I4786
sV\u663c
p3029
I2192
sV\u5c40
p3030
I1273
sV\u9546
p3031
I5664
sV\u5048
p3032
I264
sV\u4e4c
p3033
I51
sV\u94db
p3034
I5614
sV\u7b5a
p3035
I3819
sV\u715e
p3036
I3090
sV\u6f62
p3037
I2977
sV\u6566
p3038
I2096
sV\u9e6c
p3039
I6253
sV\u7aef
p3040
I3778
sV\u9274
p3041
I5565
sV\u62ff
p3042
I1906
sV\u5803
p3043
I931
sV\u7a84
p3044
I3749
sV\u8511
p3045
I4623
sV\u8315
p3046
I4461
sV\u6294
p3047
I1846
sV\u83aa
p3048
I4521
sV\u5f2d
p3049
I1532
sV\u5531
p3050
I741
sV\u61be
p3051
I1760
sV\u53ca
p3052
I582
sV\u84d0
p3053
I4610
sV\u6053
p3054
I1645
sV\u82d4
p3055
I4432
sV\u8d61
p3056
I5164
sV\u6ce0
p3057
I2737
sV\u60e8
p3058
I1705
sV\u6979
p3059
I2488
sV\u8bfa
p3060
I5025
sV\u81fe
p3061
I4341
sV\u5c81
p3062
I1302
sV\u7406
p3063
I3274
sV\u8d8b
p3064
I5180
sV\u680e
p3065
I2382
sV\u6612
p3066
I2176
sV\u5c16
p3067
I1257
sV\u9918
p3068
I5981
sV\u971c
p3069
I5848
sV\u4e22
p3070
I27
sV\u7f2c
p3071
I4105
sV\u94b1
p3072
I5597
sV\u7530
p3073
I3364
sV\u51b3
p3074
I367
sV\u7334
p3075
I3219
sV\u7cc1
p3076
I3932
sV\u9e42
p3077
I6222
sV\u5148
p3078
I316
sV\u884e
p3079
I4811
sV\u705e
p3080
I3027
sV\u89e3
p3081
I4921
sV\u626a
p3082
I1824
sV\u9570
p3083
I5686
sV\u65fb
p3084
I2168
sV\u877c
p3085
I4772
sV\u7d80
p3086
I3957
sV\u9009
p3087
I5381
sV\u6f8c
p3088
I2987
sV\u6590
p3089
I2110
sV\u9a9a
p3090
I6078
sV\u761d
p3091
I3436
sV\u5e2d
p3092
I1436
sV\u9b2f
p3093
I6116
sV\u853b
p3094
I4634
sV\u7747
p3095
I3526
sV\u6d4b
p3096
I2791
sV\u85d0
p3097
I4666
sV\u5f57
p3098
I1544
sV\u79d8
p3099
I3705
sV\u77dc
p3100
I3565
sV\u8c61
p3101
I5085
sV\u8069
p3102
I4229
sV\u7275
p3103
I3157
sV\u5f81
p3104
I1563
sV\u5389
p3105
I559
sV\u6512
p3106
I2070
sV\u7c97
p3107
I3915
sV\u769b
p3108
I3464
sV\u591a
p3109
I998
sV\u8e20
p3110
I5223
sV\u52b3
p3111
I474
sV\u8bb9
p3112
I4970
sV\u7fc1
p3113
I4168
sV\u73c9
p3114
I3257
sV\u914a
p3115
I5499
sV\u67d1
p3116
I2352
sV\u795a
p3117
I3661
sV\u4fe1
p3118
I228
sV\u7eeb
p3119
I4049
sV\u9074
p3120
I5427
sV\u6cf7
p3121
I2751
sV\u5a03
p3122
I1088
sV\u4e0b
p3123
I11
sV\u6c8c
p3124
I2692
sV\u8711
p3125
I4743
sV\u6094
p3126
I1673
sV\u7b19
p3127
I3792
sV\u5d2d
p3128
I1357
sV\u75b2
p3129
I3407
sV\u8c37
p3130
I5076
sV\u6fb6
p3131
I2996
sV\u803f
p3132
I4218
sV\u63be
p3133
I1979
sV\u5dc2
p3134
I1385
sV\u6253
p3135
I1815
sV\u955d
p3136
I5677
sV\u74dc
p3137
I3333
sV\u8369
p3138
I4502
sV\u62e8
p3139
I1894
sV\u56f0
p3140
I841
sV\u95f2
p3141
I5705
sV\u6b79
p3142
I2597
sV\u5885
p3143
I961
sV\u5289
p3144
I456
sV\u8f8b
p3145
I5312
sV\u8393
p3146
I4516
sV\u5e16
p3147
I1424
sV\u9b18
p3148
I6113
sV\u951c
p3149
I5644
sV\u719f
p3150
I3105
sV\u65a7
p3151
I2123
sV\u8328
p3152
I4466
sV\u9cad
p3153
I6156
sV\u7d2c
p3154
I3950
sV\u59af
p3155
I1063
sV\u90b5
p3156
I5454
sV\u6b38
p3157
I2574
sV\u7ec1
p3158
I4013
sV\u5f40
p3159
I1539
sV\u78c5
p3160
I3628
sV\u5944
p3161
I1018
sV\u9646
p3162
I5763
sV\u5348
p3163
I520
sV\u60d5
p3164
I1697
sV\u7e56
p3165
I3974
sV\u97db
p3166
I5893
sV\u8be3
p3167
I5006
sV\u6666
p3168
I2208
sV\u606a
p3169
I1654
sV\u79ef
p3170
I3714
sV\u9174
p3171
I5517
sV\u6df7
p3172
I2861
sV\u61ff
p3173
I1772
sV\u7984
p3174
I3681
sV\u5507
p3175
I732
sV\u8c0d
p3176
I5041
sV\u6d8c
p3177
I2817
sV\u8611
p3178
I4678
sV\u6790
p3179
I2321
sV\u8015
p3180
I4205
sV\u6194
p3181
I1753
sV\u5b98
p3182
I1195
sV\u559c
p3183
I777
sV\u6e21
p3184
I2876
sV\u4fa0
p3185
I203
sV\u80aa
p3186
I4250
sV\u5631
p3187
I805
sV\u8d37
p3188
I5129
sV\u6eb6
p3189
I2922
sV\u873b
p3190
I4756
sV\u6f4b
p3191
I2971
sV\u8dcc
p3192
I5193
sV\u7bd8
p3193
I3866
sV\u575b
p3194
I879
sV\u6fe0
p3195
I3006
sV\u8865
p3196
I4819
sV\u94f2
p3197
I5627
sV\u7075
p3198
I3032
sV\u6a79
p3199
I2551
sV\u647d
p3200
I2034
sV\u82fe
p3201
I4447
sV\u8302
p3202
I4450
sV\u5e14
p3203
I1422
sV\u8297
p3204
I4401
sV\u6418
p3205
I2008
sV\u7020
p3206
I3018
sV\u7624
p3207
I3440
sV\u9aa7
p3208
I6089
sV\u822c
p3209
I4361
sV\u69b1
p3210
I2505
sV\u75b9
p3211
I3410
sV\u573a
p3212
I867
sV\u6342
p3213
I1933
sV\u754e
p3214
I3378
sV\u7b52
p3215
I3815
sV\u62d7
p3216
I1882
sV\u6edf
p3217
I2939
sV\u8d5e
p3218
I5162
sV\u74e3
p3219
I3338
sV\u5664
p3220
I813
sV\u80eb
p3221
I4277
sV\u626c
p3222
I1826
sV\u6101
p3223
I1717
sV\u6705
p3224
I2257
sV\u9890
p3225
I5933
sV\u7f15
p3226
I4084
sV\u679a
p3227
I2324
sV\u73a2
p3228
I3243
sV\u662f
p3229
I2188
sV\u85ae
p3230
I4661
sV\u8bb2
p3231
I4963
sV\u7237
p3232
I3132
sV\u54b8
p3233
I700
sV\u783b
p3234
I3598
sV\u534d
p3235
I524
sV\u5951
p3236
I1025
sV\u78d0
p3237
I3631
sV\u5f55
p3238
I1542
sV\u6559
p3239
I2090
sV\u7765
p3240
I3535
sV\u836d
p3241
I4505
sV\u5e7f
p3242
I1466
sV\u8202
p3243
I4344
sV\u6b87
p3244
I2605
sV\u8e0a
p3245
I5217
sV\u5910
p3246
I993
sV\u6518
p3247
I2071
sV\u8f9f
p3248
I5328
sV\u5ca9
p3249
I1317
sV\u832c
p3250
I4468
sV\u68b1
p3251
I2434
sV\u8930
p3252
I4884
sV\u9538
p3253
I5656
sV\u9b3c
p3254
I6119
sV\u5c3e
p3255
I1271
sV\u80c1
p3256
I4260
sV\u51cb
p3257
I378
sV\u6e4a
p3258
I2890
sV\u57cf
p3259
I916
sV\u69db
p3260
I2519
sV\u865a
p3261
I4692
sV\u5764
p3262
I885
sV\u9e6a
p3263
I6251
sV\u8df3
p3264
I5209
sV\u6f74
p3265
I2981
sV\u7578
p3266
I3391
sV\u7b7c
p3267
I3832
sV\u6001
p3268
I1615
sV\u8180
p3269
I4318
sV\u548e
p3270
I683
sV\u7811
p3271
I3586
sV\u9990
p3272
I6019
sV\u5a92
p3273
I1123
sV\u6096
p3274
I1674
sV\u4f1f
p3275
I154
sV\u9021
p3276
I5397
sV\u7eaa
p3277
I3992
sV\u672f
p3278
I2277
sV\u6d33
p3279
I2778
sV\u7337
p3280
I3221
sV\u8543
p3281
I4637
sV\u67c4
p3282
I2346
sV\u914b
p3283
I5500
sV\u524d
p3284
I440
sV\u5851
p3285
I948
sV\u5e55
p3286
I1450
sV\u7fd4
p3287
I4173
sV\u8bdc
p3288
I5000
sV\u5eea
p3289
I1506
sV\u826d
p3290
I4387
sV\u5377
p3291
I551
sV\u9a7d
p3292
I6055
sV\u8102
p3293
I4285
sV\u4e08
p3294
I8
sV\u970e
p3295
I5844
sV\u5c14
p3296
I1256
sV\u7424
p3297
I3283
sV\u6db5
p3298
I2838
sV\u8c34
p3299
I5074
sV\u79bd
p3300
I3694
sV\u83c1
p3301
I4531
sV\u6b46
p3302
I2581
sV\u52cb
p3303
I482
sV\u6d4a
p3304
I2790
sV\u91cd
p3305
I5555
sV\u5ed3
p3306
I1501
sV\u8356
p3307
I4489
sV\u9162
p3308
I5508
sV\u5464
p3309
I666
sV\u5e68
p3310
I1455
sV\u82eb
p3311
I4443
sV\u606c
p3312
I1656
sV\u6c74
p3313
I2679
sV\u57f9
p3314
I927
sV\u7678
p3315
I3449
sV\u9afb
p3316
I6108
sV\u9cff
p3317
I6177
sV\u6301
p3318
I1907
sV\u6f09
p3319
I2952
sV\u7b11
p3320
I3789
sV\u9a90
p3321
I6071
sV\u5992
p3322
I1051
sV\u6396
p3323
I1964
sV\u9525
p3324
I5649
sV\u5827
p3325
I941
sV\u7ba6
p3326
I3848
sV\u87ae
p3327
I4781
sV\u7a3b
p3328
I3730
sV\u58bc
p3329
I972
sV\u7c3f
p3330
I3900
sV\u514d
p3331
I319
sV\u5b51
p3332
I1159
sV\u9e53
p3333
I6235
sV\u5d55
p3334
I1367
sV\u695d
p3335
I2478
sV\u4fde
p3336
I226
sV\u7565
p3337
I3385
sV\u7f69
p3338
I4136
sV\u4e73
p3339
I68
sV\u69f2
p3340
I2524
sV\u8d75
p3341
I5174
sV\u5077
p3342
I274
sV\u75fa
p3343
I3430
sV\u997d
p3344
I6008
sV\u5c7f
p3345
I1301
sV\u7ffe
p3346
I4192
sV\u6987
p3347
I2493
sV\u738b
p3348
I3237
sV\u8c0a
p3349
I5038
sV\u510c
p3350
I303
sV\u758f
p3351
I3398
sV\u960e
p3352
I5730
sV\u5d14
p3353
I1348
sV\u52a1
p3354
I464
sV\u7f28
p3355
I4101
sV\u60ad
p3356
I1684
sV\u8d34
p3357
I5126
sV\u5236
p3358
I428
sV\u9738
p3359
I5855
sV\u6042
p3360
I1639
sV\u53cb
p3361
I583
sV\u9ad1
p3362
I6098
sV\u6bdb
p3363
I2636
sV\u5360
p3364
I536
sV\u77e3
p3365
I3568
sV\u9062
p3366
I5420
sV\u79e7
p3367
I3710
sV\u8ff3
p3368
I5368
sV\u6d74
p3369
I2809
sV\u56f9
p3370
I845
sV\u797c
p3371
I3678
sV\u6405
p3372
I2002
sV\u8584
p3373
I4651
sV\u8f88
p3374
I5309
sV\u700d
p3375
I3014
sV\u568e
p3376
I824
sV\u6296
p3377
I1848
sV\u649a
p3378
I2043
sV\u5723
p3379
I859
sV\u5927
p3380
I1003
sV\u7aa6
p3381
I3765
sV\u9e29
p3382
I6207
sV\u632b
p3383
I1926
sV\u7caa
p3384
I3922
sV\u652f
p3385
I2074
sV\u6f33
p3386
I2966
sV\u94ba
p3387
I5601
sV\u9ebe
p3388
I6281
sV\u65c4
p3389
I2138
sV\u4e49
p3390
I49
sV\u5c55
p3391
I1285
sV\u89dc
p3392
I4919
sV\u4ede
p3393
I125
sV\u7261
p3394
I3151
sV\u5ae6
p3395
I1146
sV\u5cea
p3396
I1336
sV\u4f73
p3397
I189
sV\u68f2
p3398
I2456
sV\u5177
p3399
I340
sV\u987d
p3400
I5918
sV\u7efe
p3401
I4063
sV\u6083
p3402
I1668
sV\u8702
p3403
I4737
sV\u6e87
p3404
I2908
sV\u748b
p3405
I3319
sV\u7893
p3406
I3617
sV\u4f9d
p3407
I202
sV\u90a3
p3408
I5445
sV\u53a5
p3409
I569
sV\u59a9
p3410
I1059
sV\u67ad
p3411
I2334
sV\u4f32
p3412
I163
sV\u6bb5
p3413
I2618
sV\u71b9
p3414
I3110
sV\u9038
p3415
I5405
sV\u533a
p3416
I511
sV\u7fbd
p3417
I4166
sV\u85c1
p3418
I4663
sV\u6742
p3419
I2284
sV\u83c5
p3420
I4533
sV\u4ec7
p3421
I110
sV\u6d46
p3422
I2788
sV\u89c9
p3423
I4910
sV\u714e
p3424
I3087
sV\u8556
p3425
I4641
sV\u6cdb
p3426
I2734
sV\u835a
p3427
I4490
sV\u895e
p3428
I4893
sV\u9762
p3429
I5867
sV\u7ee7
p3430
I4045
sV\u666c
p3431
I2210
sV\u6c70
p3432
I2677
sV\u88f3
p3433
I4865
sV\u96f7
p3434
I5832
sV\u51f9
p3435
I395
sV\u5ffd
p3436
I1611
sV\u8480
p3437
I4589
sV\u8888
p3438
I4835
sV\u5f92
p3439
I1574
sV\u7b15
p3440
I3791
sV\u9521
p3441
I5645
sV\u5e27
p3442
I1434
sV\u7da6
p3443
I3960
sV\u7baa
p3444
I3852
sV\u7a3f
p3445
I3733
sV\u8043
p3446
I4220
sV\u62c4
p3447
I1868
sV\u8e47
p3448
I5237
sV\u76cc
p3449
I3479
sV\u924f
p3450
I5562
sV\u9853
p3451
I5909
sV\u5b55
p3452
I1161
sV\u94e0
p3453
I5616
sV\u5de6
p3454
I1397
sV\u98e8
p3455
I5972
sV\u61ee
p3456
I1769
sV\u9179
p3457
I5520
sV\u5a7f
p3458
I1121
sV\u79fe
p3459
I3718
sV\u758b
p3460
I3397
sV\u8b9f
p3461
I4947
sV\u58a9
p3462
I971
sV\u6cb1
p3463
I2712
sV\u8d30
p3464
I5122
sV\u4e32
p3465
I36
sV\u70b9
p3466
I3055
sV\u523a
p3467
I432
sV\u7ebd
p3468
I4009
sV\u84c1
p3469
I4604
sV\u96cd
p3470
I5819
sV\u59d3
p3471
I1073
sV\u825a
p3472
I4382
sV\u4f5c
p3473
I182
sV\u9662
p3474
I5776
sV\u5364
p3475
I539
sV\u89f3
p3476
I4926
sV\u6401
p3477
I2000
sV\u6809
p3478
I2379
sV\u8019
p3479
I4208
sV\u629a
p3480
I1851
sV\u5f27
p3481
I1530
sV\u652b
p3482
I2073
sV\u632f
p3483
I1927
sV\u80ae
p3484
I4252
sV\u8eb2
p3485
I5267
sV\u7737
p3486
I3519
sV\u5fbc
p3487
I1589
sV\u63c4
p3488
I1981
sV\u5c51
p3489
I1284
sV\u5a55
p3490
I1112
sV\u6059
p3491
I1647
sV\u8fdc
p3492
I5353
sV\u56e2
p3493
I837
sV\u5ce6
p3494
I1334
sV\u5aea
p3495
I1148
sV\u60ee
p3496
I1709
sV\u5777
p3497
I893
sV\u74f6
p3498
I3342
sV\u6283
p3499
I1838
sV\u768b
p3500
I3458
sV\u890a
p3501
I4872
sV\u540c
p3502
I623
sV\u5e10
p3503
I1419
sV\u9d12
p3504
I6180
sV\u6218
p3505
I1785
sV\u7620
p3506
I3438
sV\u51a5
p3507
I361
sV\u65ad
p3508
I2126
sV\u842c
p3509
I4569
sV\u6f46
p3510
I2968
sV\u8bc9
p3511
I4984
sV\u95cd
p3512
I5696
sV\u50cf
p3513
I289
sV\u6edb
p3514
I2937
sV\u9562
p3515
I5681
sV\u996a
p3516
I5993
sV\u80ef
p3517
I4279
sV\u4ff1
p3518
I236
sV\u6874
p3519
I2419
sV\u53f9
p3520
I615
sV\u7278
p3521
I3159
sV\u9efb
p3522
I6299
sV\u5dfd
p3523
I1409
sV\u8680
p3524
I4703
sV\u8084
p3525
I4233
sV\u750d
p3526
I3348
sV\u7f11
p3527
I4080
sV\u5d92
p3528
I1378
sV\u9894
p3529
I5936
sV\u4e1b
p3530
I23
sV\u8d1d
p3531
I5104
sV\u5c27
p3532
I1263
sV\u602f
p3533
I1634
sV\u97b6
p3534
I5891
sV\u7e3b
p3535
I3969
sV\u91ba
p3536
I5547
sV\u66c0
p3537
I2236
sV\u964b
p3538
I5767
sV\u74cc
p3539
I3329
sV\u904f
p3540
I5414
sV\u5955
p3541
I1027
sV\u78d4
p3542
I3633
sV\u7761
p3543
I3532
sV\u96e0
p3544
I5825
sV\u55e2
p3545
I790
sV\u90e4
p3546
I5474
sV\u7b69
p3547
I3825
sV\u8f71
p3548
I5290
sV\u5477
p3549
I672
sV\u77f6
p3550
I3578
sV\u5e7b
p3551
I1463
sV\u587f
p3552
I957
sV\u7bfe
p3553
I3882
sV\u778b
p3554
I3545
sV\u718f
p3555
I3101
sV\u7b93
p3556
I3841
sV\u5914
p3557
I994
sV\u8f9b
p3558
I5325
sV\u7720
p3559
I3512
sV\u50a5
p3560
I282
sV\u7b28
p3561
I3799
sV\u64ad
p3562
I2049
sV\u852c
p3563
I4631
sV\u6eb1
p3564
I2919
sV\u68b5
p3565
I2436
sV\u5636
p3566
I808
sV\u72b9
p3567
I3175
sV\u503a
p3568
I259
sV\u7cbd
p3569
I3930
sV\u57cb
p3570
I914
sV\u51cf
p3571
I380
sV\u9ed1
p3572
I6287
sV\u5bd3
p3573
I1230
sV\u98d5
p3574
I5962
sV\u65d7
p3575
I2149
sV\u6fdb
p3576
I3005
sV\u805a
p3577
I4228
sV\u69df
p3578
I2520
sV\u5760
p3579
I883
sV\u9e66
p3580
I6248
sV\u656c
p3581
I2099
sV\u8bf3
p3582
I5019
sV\u95f7
p3583
I5710
sV\u8780
p3584
I4773
sV\u6005
p3585
I1616
sV\u4e86
p3586
I71
sV\u9994
p3587
I6022
sV\u6696
p3588
I2227
sV\u4f1b
p3589
I152
sV\u609a
p3590
I1675
sV\u9621
p3591
I5745
sV\u5323
p3592
I506
sV\u5d27
p3593
I1355
sV\u7ea6
p3594
I3988
sV\u672b
p3595
I2273
sV\u78aa
p3596
I3624
sV\u612f
p3597
I1731
sV\u82ae
p3598
I4415
sV\u7537
p3599
I3369
sV\u96b6
p3600
I5806
sV\u90ba
p3601
I5457
sV\u8343
p3602
I4477
sV\u75cc
p3603
I3417
sV\u83d8
p3604
I4539
sV\u6c5d
p3605
I2668
sV\u97e0
p3606
I5894
sV\u54e2
p3607
I717
sV\u846d
p3608
I4584
sV\u5f7b
p3609
I1560
sV\u6c83
p3610
I2686
sV\u8106
p3611
I4286
sV\u870a
p3612
I4741
sV\u5a0c
p3613
I1095
sV\u7428
p3614
I3286
sV\u8030
p3615
I4212
sV\u5f3a
p3616
I1537
sV\u553e
p3617
I744
sV\u89c1
p3618
I4903
sV\u8fc5
p3619
I5341
sV\u85c9
p3620
I4664
sV\u91d1
p3621
I5559
sV\u7352
p3622
I3226
sV\u855e
p3623
I4644
sV\u5860
p3624
I953
sV\u5468
p3625
I668
sV\u6070
p3626
I1659
sV\u6674
p3627
I2214
sV\u9a8c
p3628
I6068
sV\u9694
p3629
I5794
sV\u6996
p3630
I2498
sV\u831d
p3631
I4464
sV\u77aa
p3632
I3553
sV\u6e2f
p3633
I2883
sV\u83b2
p3634
I4524
sV\u7a37
p3635
I3729
sV\u5cb8
p3636
I1324
sV\u52bc
p3637
I476
sV\u763f
p3638
I3446
sV\u68c0
p3639
I2437
sV\u8247
p3640
I4374
sV\u984b
p3641
I5908
sV\u9e4f
p3642
I6232
sV\u5151
p3643
I320
sV\u76d4
p3644
I3486
sV\u6d59
p3645
I2801
sV\u4fda
p3646
I224
sV\u82dc
p3647
I4436
sV\u7f65
p3648
I4134
sV\u94e8
p3649
I5620
sV\u6dee
p3650
I2857
sV\u63f2
p3651
I1995
sV\u5a77
p3652
I1119
sV\u507b
p3653
I275
sV\u75fe
p3654
I3432
sV\u6387
p3655
I1957
sV\u8006
p3656
I4198
sV\u798b
p3657
I3684
sV\u5ea5
p3658
I1486
sV\u7f24
p3659
I4097
sV\u54a9
p3660
I693
sV\u7528
p3661
I3358
sV\u8130
p3662
I4296
sV\u7cb9
p3663
I3928
sV\u543e
p3664
I653
sV\u88c1
p3665
I4851
sV\u84c9
p3666
I4607
sV\u59cb
p3667
I1069
sV\u664a
p3668
I2196
sV\u5fcf
p3669
I1597
sV\u90d1
p3670
I5467
sV\u55d3
p3671
I786
sV\u7252
p3672
I3143
sV\u96d5
p3673
I5823
sV\u6bd7
p3674
I2633
sV\u5960
p3675
I1032
sV\u5f64
p3676
I1547
sV\u89eb
p3677
I4924
sV\u966a
p3678
I5781
sV\u6170
p3679
I1746
sV\u6e05
p3680
I2865
sV\u8f84
p3681
I5305
sV\u6409
p3682
I2003
sV\u7a0d
p3683
I3721
sV\u7011
p3684
I3015
sV\u9190
p3685
I5533
sV\u8c19
p3686
I5052
sV\u649e
p3687
I2044
sV\u9e25
p3688
I6205
sV\u76aa
p3689
I3468
sV\u8d43
p3690
I5140
sV\u4e45
p3691
I46
sV\u8347
p3692
I4481
sV\u7bcc
p3693
I3863
sV\u83dc
p3694
I4540
sV\u50e6
p3695
I292
sV\u95e8
p3696
I5697
sV\u4f6f
p3697
I188
sV\u6cee
p3698
I2746
sV\u517b
p3699
I343
sV\u6e83
p3700
I2905
sV\u8306
p3701
I4454
sV\u7a8b
p3702
I3752
sV\u9f0e
p3703
I6305
sV\u7693
p3704
I3461
sV\u601c
p3705
I1626
sV\u5ba1
p3706
I1203
sV\u7a20
p3707
I3727
sV\u90a7
p3708
I5447
sV\u57a9
p3709
I910
sV\u69ad
p3710
I2503
sV\u8230
p3711
I4362
sV\u65b5
p3712
I2129
sV\u7fb9
p3713
I4165
sV\u903c
p3714
I5407
sV\u8bc1
p3715
I4977
sV\u4ec3
p3716
I106
sV\u6942
p3717
I2473
sV\u6346
p3718
I1934
sV\u68d7
p3719
I2446
sV\u4e58
p3720
I58
sV\u62db
p3721
I1886
sV\u8d5a
p3722
I5160
sV\u7ee3
p3723
I4042
sV\u70e7
p3724
I3070
sV\u5668
p3725
I814
sV\u956a
p3726
I5682
sV\u6270
p3727
I1830
sV\u51fd
p3728
I398
sV\u707c
p3729
I3035
sV\u94ff
p3730
I5632
sV\u6709
p3731
I2259
sV\u5192
p3732
I352
sV\u6b96
p3733
I2611
sV\u5eb8
p3734
I1495
sV\u723b
p3735
I3134
sV\u9dba
p3736
I6188
sV\u6cc4
p3737
I2723
sV\u66c8
p3738
I2237
sV\u5351
p3739
I527
sV\u72d0
p3740
I3182
sV\u5555
p3741
I752
sV\u615d
p3742
I1741
sV\u80dc
p3743
I4269
sV\u53e6
p3744
I598
sV\u7769
p3745
I3538
sV\u96e8
p3746
I5826
sV\u6fee
p3747
I3010
sV\u917d
p3748
I5522
sV\u8206
p3749
I4347
sV\u9012
p3750
I5388
sV\u5514
p3751
I735
sV\u6f18
p3752
I2957
sV\u7b20
p3753
I3795
sV\u7728
p3754
I3515
sV\u68ad
p3755
I2431
sV\u62b1
p3756
I1861
sV\u5a36
p3757
I1106
sV\u7eb9
p3758
I4006
sV\u5c3a
p3759
I1268
sV\u70bd
p3760
I3058
sV\u4fc3
p3761
I216
sV\u6842
p3762
I2402
sV\u6246
p3763
I1806
sV\u644a
p3764
I2023
sV\u8c5a
p3765
I5084
sV\u65df
p3766
I2152
sV\u865e
p3767
I4693
sV\u7fe3
p3768
I4182
sV\u71e7
p3769
I3118
sV\u5768
p3770
I887
sV\u8beb
p3771
I5011
sV\u946a
p3772
I5576
sV\u8def
p3773
I5208
sV\u6574
p3774
I2103
sV\u95ff
p3775
I5718
sV\u6c05
p3776
I2643
sV\u780d
p3777
I3585
sV\u998c
p3778
I6017
sV\u6c9a
p3779
I2699
sV\u80b2
p3780
I4255
sV\u51bc
p3781
I372
sV\u753f
p3782
I3373
sV\u96be
p3783
I5810
sV\u6dc4
p3784
I2842
sV\u67c8
p3785
I2348
sV\u9b4b
p3786
I6127
sV\u584d
p3787
I947
sV\u5251
p3788
I442
sV\u73d0
p3789
I3260
sV\u9753
p3790
I5861
sV\u5455
p3791
I660
sV\u8fd8
p3792
I5350
sV\u7c65
p3793
I3906
sV\u9de4
p3794
I6193
sV\u54ea
p3795
I722
sV\u8475
p3796
I4587
sV\u7cfa
p3797
I3942
sV\u907d
p3798
I5429
sV\u76fe
p3799
I3502
sV\u6883
p3800
I2423
sV\u6687
p3801
I2223
sV\u5e0c
p3802
I1417
sV\u5410
p3803
I627
sV\u829f
p3804
I4406
sV\u7c20
p3805
I3891
sV\u98a3
p3806
I5948
sV\u5ba5
p3807
I1207
sV\u96a7
p3808
I5801
sV\u8e2c
p3809
I5229
sV\u8234
p3810
I4366
sV\u79b9
p3811
I3691
sV\u8bc5
p3812
I4981
sV\u5ccb
p3813
I1327
sV\u5acf
p3814
I1138
sV\u7752
p3815
I3529
sV\u8d56
p3816
I5156
sV\u62df
p3817
I1888
sV\u5c60
p3818
I1289
sV\u4fed
p3819
I233
sV\u59f9
p3820
I1084
sV\u57fd
p3821
I929
sV\u6d01
p3822
I2757
sV\u6109
p3823
I1720
sV\u7511
p3824
I3349
sV\u5792
p3825
I901
sV\u7315
p3826
I3206
sV\u6b9a
p3827
I2612
sV\u4eac
p3828
I95
sV\u6a2f
p3829
I2535
sV\u6033
p3830
I1635
sV\u56bc
p3831
I831
sV\u91be
p3832
I5549
sV\u7ecc
p3833
I4024
sV\u9053
p3834
I5418
sV\u5355
p3835
I530
sV\u6959
p3836
I2476
sV\u88d8
p3837
I4858
sV\u90e8
p3838
I5477
sV\u53ea
p3839
I601
sV\u8f6d
p3840
I5286
sV\u547b
p3841
I673
sV\u6787
p3842
I2317
sV\u5510
p3843
I734
sV\u9612
p3844
I5734
sV\u8f97
p3845
I5322
sV\u859b
p3846
I4656
sV\u7d20
p3847
I3946
sV\u7b24
p3848
I3796
sV\u50a9
p3849
I284
sV\u62b5
p3850
I1862
sV\u503e
p3851
I261
sV\u6446
p3852
I2020
sV\u9ecd
p3853
I6284
sV\u784e
p3854
I3603
sV\u65db
p3855
I2151
sV\u79e3
p3856
I3707
sV\u9e62
p3857
I6244
sV\u5b64
p3858
I1172
sV\u77e7
p3859
I3570
sV\u5168
p3860
I329
sV\u8bef
p3861
I5015
sV\u6570
p3862
I2101
sV\u81f3
p3863
I4337
sV\u58f9
p3864
I987
sV\u7978
p3865
I3676
sV\u95fb
p3866
I5714
sV\u56fd
p3867
I847
sV\u9f8c
p3868
I6330
sV\u4f17
p3869
I148
sV\u7ea2
p3870
I3984
sV\u6d2b
p3871
I2774
sV\u4fac
p3872
I210
sV\u9cb6
p3873
I6160
sV\u753b
p3874
I3372
sV\u733f
p3875
I3224
sV\u6dc0
p3876
I2841
sV\u8747
p3877
I4759
sV\u61c8
p3878
I1762
sV\u7fcc
p3879
I4171
sV\u9b4f
p3880
I6129
sV\u87dc
p3881
I4793
sV\u54e6
p3882
I719
sV\u8e6d
p3883
I5250
sV\u68ee
p3884
I2454
sV\u8471
p3885
I4585
sV\u66f2
p3886
I2247
sV\u5f77
p3887
I1558
sV\u9879
p3888
I5915
sV\u557b
p3889
I761
sV\u7afa
p3890
I3780
sV\u537f
p3891
I554
sV\u4e00
p3892
I4
sV\u6487
p3893
I2037
sV\u810a
p3894
I4288
sV\u788f
p3895
I3615
sV\u641c
p3896
I2009
sV\u5fa1
p3897
I1580
sV\u7e20
p3898
I3967
sV\u59a5
p3899
I1057
sV\u94a7
p3900
I5595
sV\u53a9
p3901
I572
sV\u7228
p3902
I3124
sV\u8c2c
p3903
I5068
sV\u593a
p3904
I1015
sV\u75bd
p3905
I3412
sV\u533e
p3906
I514
sV\u8fc1
p3907
I5338
sV\u89c5
p3908
I4906
sV\u6746
p3909
I2286
sV\u5ecb
p3910
I1499
sV\u614a
p3911
I1735
sV\u6cd7
p3912
I2732
sV\u66db
p3913
I2240
sV\u60df
p3914
I1701
sV\u835e
p3915
I4493
sV\u7ae3
p3916
I3774
sV\u916a
p3917
I5513
sV\u88ef
p3918
I4863
sV\u6670
p3919
I2213
sV\u9cf7
p3920
I6176
sV\u5bf9
p3921
I1244
sV\u55fd
p3922
I796
sV\u6905
p3923
I2461
sV\u8884
p3924
I4833
sV\u6309
p3925
I1911
sV\u9690
p3926
I5793
sV\u7115
p3927
I3077
sV\u639e
p3928
I1966
sV\u5a23
p3929
I1100
sV\u6e2b
p3930
I2881
sV\u8bae
p3931
I4960
sV\u6233
p3932
I1796
sV\u5ab8
p3933
I1131
sV\u62c8
p3934
I1871
sV\u5751
p3935
I876
sV\u76d0
p3936
I3483
sV\u5155
p3937
I323
sV\u6b59
p3938
I2587
sV\u655d
p3939
I2092
sV\u7f61
p3940
I4131
sV\u9ee0
p3941
I6294
sV\u5de2
p3942
I1395
sV\u7965
p3943
I3669
sV\u8d6d
p3944
I5171
sV\u507f
p3945
I276
sV\u6b83
p3946
I2602
sV\u8c02
p3947
I5032
sV\u6587
p3948
I2108
sV\u798f
p3949
I3685
sV\u7f20
p3950
I4095
sV\u52a9
p3951
I467
sV\u8d2c
p3952
I5118
sV\u953c
p3953
I5660
sV\u6c42
p3954
I2660
sV\u88c5
p3955
I4853
sV\u8feb
p3956
I5364
sV\u6770
p3957
I2307
sV\u54fd
p3958
I729
sV\u6805
p3959
I2376
sV\u5492
p3960
I686
sV\u841d
p3961
I4563
sV\u9e21
p3962
I6202
sV\u7ca2
p3963
I3919
sV\u5527
p3964
I738
sV\u76a6
p3965
I3467
sV\u6f2b
p3966
I2963
sV\u84b2
p3967
I4598
sV\u5bb8
p3968
I1216
sV\u98ba
p3969
I5952
sV\u6fc0
p3970
I2999
sV\u7dcc
p3971
I3963
sV\u5055
p3972
I267
sV\u71d4
p3973
I3114
sV\u4ed6
p3974
I120
sV\u6a59
p3975
I2544
sV\u8bd8
p3976
I4996
sV\u85dc
p3977
I4669
sV\u7269
p3978
I3154
sV\u8671
p3979
I4697
sV\u7ef6
p3980
I4057
sV\u9a79
p3981
I6051
sV\u577b
p3982
I894
sV\u78fa
p3983
I3641
sV\u7483
p3984
I3315
sV\u6c93
p3985
I2696
sV\u4e14
p3986
I17
sV\u989b
p3987
I5941
sV\u5b9d
p3988
I1200
sV\u7a1c
p3989
I3726
sV\u9e9f
p3990
I6271
sV\u6020
p3991
I1628
sV\u73ad
p3992
I3246
sV\u552e
p3993
I739
sV\u7fb5
p3994
I4163
sV\u65b9
p3995
I2130
sV\u8438
p3996
I4571
sV\u6bbd
p3997
I2620
sV\u89d1
p3998
I4916
sV\u72d7
p3999
I3185
sV\u5458
p4000
I662
sV\u7edf
p4001
I4038
sV\u8966
p4002
I4895
sV\u90eb
p4003
I5478
sV\u53ed
p4004
I604
sV\u96ef
p4005
I5829
sV\u5ff5
p4006
I1609
sV\u6478
p4007
I2032
sV\u6a7c
p4008
I2552
sV\u8eff
p4009
I5270
sV\u9080
p4010
I5431
sV\u5382
p4011
I555
sV\u5986
p4012
I1047
sV\u9c88
p4013
I6143
sV\u5f8a
p4014
I1570
sV\u6911
p4015
I2465
sV\u6f15
p4016
I2956
sV\u8e94
p4017
I5261
sV\u5217
p4018
I413
sV\u9519
p4019
I5643
sV\u5e1f
p4020
I1431
sV\u63a2
p4021
I1969
sV\u69a6
p4022
I2501
sV\u8d29
p4023
I5115
sV\u52ac
p4024
I470
sV\u7c33
p4025
I3895
sV\u6237
p4026
I1798
sV\u87ba
p4027
I4785
sV\u8dbe
p4028
I5187
sV\u5141
p4029
I311
sV\u804b
p4030
I4223
sV\u62cc
p4031
I1874
sV\u864f
p4032
I4688
sV\u4f55
p4033
I177
sV\u6ed4
p4034
I2934
sV\u7559
p4035
I3381
sV\u57da
p4036
I922
sV\u7b5d
p4037
I3822
sV\u5dde
p4038
I1393
sV\u6765
p4039
I2302
sV\u86e4
p4040
I4729
sV\u6d69
p4041
I2806
sV\u8ce8
p4042
I5103
sV\u4fea
p4043
I232
sV\u9971
p4044
I6000
sV\u7bf2
p4045
I3878
sV\u7583
p4046
I3395
sV\u5704
p4047
I851
sV\u9e0a
p4048
I6197
sV\u840e
p4049
I4559
sV\u6d93
p4050
I2820
sV\u5499
p4051
I687
sV\u7518
p4052
I3352
sV\u9f9f
p4053
I6334
sV\u6120
p4054
I1727
sV\u8ba7
p4055
I4953
sV\u6d28
p4056
I2771
sV\u542e
p4057
I644
sV\u5a32
p4058
I1104
sV\u7eb5
p4059
I4002
sV\u90c1
p4060
I5459
sV\u7242
p4061
I3137
sV\u96c5
p4062
I5814
sV\u5bc7
p4063
I1226
sV\u82cd
p4064
I4426
sV\u5b5c
p4065
I1168
sV\u7fdf
p4066
I4179
sV\u8e6a
p4067
I5248
sV\u736c
p4068
I3229
sV\u7f74
p4069
I4142
sV\u6b7c
p4070
I2599
sV\u7001
p4071
I3012
sV\u7c09
p4072
I3885
sV\u5e8a
p4073
I1470
sV\u620d
p4074
I1777
sV\u6811
p4075
I2384
sV\u8f94
p4076
I5319
sV\u5317
p4077
I501
sV\u7096
p4078
I3044
sV\u5f1f
p4079
I1525
sV\u62a2
p4080
I1856
sV\u68a6
p4081
I2428
sV\u8c29
p4082
I5066
sV\u6eaa
p4083
I2917
sV\u9543
p4084
I5663
sV\u9b47
p4085
I6124
sV\u814b
p4086
I4301
sV\u69d0
p4087
I2516
sV\u8d53
p4088
I5154
sV\u7459
p4089
I3303
sV\u56da
p4090
I833
sV\u6c69
p4091
I2675
sV\u8de8
p4092
I5205
sV\u516b
p4093
I330
sV\u4eea
p4094
I129
sV\u576f
p4095
I890
sV\u74ee
p4096
I3340
sV\u60f6
p4097
I1713
sV\u4f7f
p4098
I192
sV\u6cfe
p4099
I2756
sV\u5200
p4100
I400
sV\u9102
p4101
I5484
sV\u5404
p4102
I618
sV\u7887
p4103
I3610
sV\u5e08
p4104
I1416
sV\u648f
p4105
I2038
sV\u6e93
p4106
I2911
sV\u8912
p4107
I4874
sV\u9097
p4108
I5440
sV\u9a9b
p4109
I6079
sV\u9c9f
p4110
I6151
sV\u4fa9
p4111
I208
sV\u572e
p4112
I863
sV\u7bb1
p4113
I3856
sV\u7db5
p4114
I3962
sV\u67b9
p4115
I2342
sV\u8638
p4116
I4683
sV\u674e
p4117
I2290
sV\u8bd1
p4118
I4991
sV\u4ed3
p4119
I117
sV\u8dd5
p4120
I5197
sV\u7cdf
p4121
I3939
sV\u8b66
p4122
I4943
sV\u8d6a
p4123
I5169
sV\u51ed
p4124
I389
sV\u7a70
p4125
I3740
sV\u9ef3
p4126
I6298
sV\u5df5
p4127
I1407
sV\u7f09
p4128
I4074
sV\u9e88
p4129
I6262
sV\u610d
p4130
I1721
sV\u808c
p4131
I4238
sV\u8c94
p4132
I5100
sV\u7396
p4133
I3240
sV\u759a
p4134
I3401
sV\u7f9e
p4135
I4158
sV\u6daa
p4136
I2834
sV\u50ac
p4137
I286
sV\u742f
p4138
I3290
sV\u97ae
p4139
I5887
sV\u8fbe
p4140
I5337
sV\u5341
p4141
I516
sV\u5545
p4142
I749
sV\u7ec8
p4143
I4020
sV\u824b
p4144
I4376
sV\u53d6
p4145
I588
sV\u96d8
p4146
I5824
sV\u795d
p4147
I3664
sV\u77ee
p4148
I3574
sV\u5e73
p4149
I1459
sV\u63f6
p4150
I1997
sV\u65fa
p4151
I2167
sV\u5300
p4152
I493
sV\u9002
p4153
I5376
sV\u5f08
p4154
I1516
sV\u6320
p4155
I1920
sV\u4ea9
p4156
I93
sV\u70ad
p4157
I3049
sV\u4e3e
p4158
I43
sV\u57c3
p4159
I913
sV\u94c5
p4160
I5607
sV\u7a46
p4161
I3735
sV\u9ec9
p4162
I6283
sV\u9e5e
p4163
I6242
sV\u8c6a
p4164
I5087
sV\u50ed
p4165
I294
sV\u95ef
p4166
I5702
sV\u5af1
p4167
I1150
sV\u8bfb
p4168
I5026
sV\u697c
p4169
I2489
sV\u7405
p4170
I3273
sV\u9f88
p4171
I6327
sV\u600d
p4172
I1619
sV\u5117
p4173
I305
sV\u9619
p4174
I5740
sV\u5b1b
p4175
I1153
sV\u749a
p4176
I3322
sV\u8425
p4177
I4565
sV\u8e29
p4178
I5227
sV\u732b
p4179
I3215
sV\u6caa
p4180
I2709
sV\u51ac
p4181
I362
sV\u752f
p4182
I3363
sV\u96ae
p4183
I5803
sV\u5bb0
p4184
I1211
sV\u6b3b
p4185
I2577
sV\u84ba
p4186
I4601
sV\u6d3f
p4187
I2784
sV\u73c0
p4188
I3254
sV\u9743
p4189
I5858
sV\u8f53
p4190
I5278
sV\u52d6
p4191
I485
sV\u97d8
p4192
I5892
sV\u785d
p4193
I3606
sV\u85e4
p4194
I4671
sV\u8fe8
p4195
I5361
sV\u536b
p4196
I542
sV\u906d
p4197
I5424
sV\u76ee
p4198
I3496
sV\u9a71
p4199
I6044
sV\u62f6
p4200
I1902
sV\u8679
p4201
I4698
sV\u887d
p4202
I4828
sV\u9702
p4203
I5837
sV\u6893
p4204
I2425
sV\u9697
p4205
I5795
sV\u5199
p4206
I355
sV\u9c9b
p4207
I6149
sV\u962c
p4208
I5748
sV\u7bb5
p4209
I3858
sV\u8038
p4210
I4215
sV\u614e
p4211
I1737
sV\u8dd1
p4212
I5196
sV\u8bd5
p4213
I4994
sV\u76d7
p4214
I3488
sV\u9556
p4215
I5673
sV\u7adf
p4216
I3772
sV\u8d66
p4217
I5168
sV\u94eb
p4218
I5623
sV\u57ed
p4219
I925
sV\u5df1
p4220
I1403
sV\u7a74
p4221
I3741
sV\u6078
p4222
I1662
sV\u5782
p4223
I896
sV\u9888
p4224
I5928
sV\u670d
p4225
I2261
sV\u868c
p4226
I4709
sV\u6d11
p4227
I2761
sV\u9119
p4228
I5486
sV\u5a1f
p4229
I1099
sV\u8521
p4230
I4629
sV\u67a2
p4231
I2327
sV\u4e27
p4232
I31
sV\u6da6
p4233
I2830
sV\u56ac
p4234
I826
sV\u91ae
p4235
I5542
sV\u83ba
p4236
I4528
sV\u5541
p4237
I746
sV\u5345
p4238
I518
sV\u72c4
p4239
I3179
sV\u9e47
p4240
I6227
sV\u5949
p4241
I1021
sV\u6cd0
p4242
I2728
sV\u7f5d
p4243
I4129
sV\u9edc
p4244
I6291
sV\u59de
p4245
I1078
sV\u84e0
p4246
I4615
sV\u6969
p4247
I2482
sV\u88e8
p4248
I4862
sV\u546b
p4249
I669
sV\u526f
p4250
I451
sV\u71ee
p4251
I3119
sV\u65f6
p4252
I2164
sV\u8179
p4253
I4313
sV\u8f7d
p4254
I5300
sV\u9602
p4255
I5721
sV\u5304
p4256
I494
sV\u7f87
p4257
I4150
sV\u658b
p4258
I2109
sV\u638f
p4259
I1962
sV\u7f1c
p4260
I4091
sV\u6324
p4261
I1923
sV\u7cb1
p4262
I3925
sV\u5e32
p4263
I1439
sV\u8138
p4264
I4298
sV\u6ebd
p4265
I2925
sV\u94c1
p4266
I5604
sV\u7a4a
p4267
I3737
sV\u77d7
p4268
I3563
sV\u8662
p4269
I4694
sV\u95eb
p4270
I5699
sV\u56ed
p4271
I840
sV\u7b74
p4272
I3829
sV\u8dfb
p4273
I5214
sV\u4efd
p4274
I137
sV\u6f7c
p4275
I2984
sV\u9988
p4276
I6014
sV\u5a8a
p4277
I1122
sV\u6c11
p4278
I2648
sV\u4e92
p4279
I79
sV\u6a15
p4280
I2528
sV\u5d1b
p4281
I1351
sV\u6ca6
p4282
I2706
sV\u752b
p4283
I3361
sV\u90ae
p4284
I5449
sV\u5db0
p4285
I1383
sV\u5bb4
p4286
I1213
sV\u6d3b
p4287
I2780
sV\u834f
p4288
I4484
sV\u6bd4
p4289
I2630
sV\u6869
p4290
I2418
sV\u536f
p4291
I545
sV\u5973
p4292
I1037
sV\u9a75
p4293
I6047
sV\u5a08
p4294
I1093
sV\u830e
p4295
I4457
sV\u4e10
p4296
I14
sV\u9497
p4297
I5585
sV\u9e9b
p4298
I6269
sV\u7c1c
p4299
I3889
sV\u989f
p4300
I5944
sV\u6620
p4301
I2182
sV\u82a3
p4302
I4408
sV\u6a28
p4303
I2533
sV\u532e
p4304
I509
sV\u9e30
p4305
I6213
sV\u8238
p4306
I4370
sV\u52c3
p4307
I479
sV\u794a
p4308
I3653
sV\u634e
p4309
I1938
sV\u8fd1
p4310
I5347
sV\u6d52
p4311
I2797
sV\u9756
p4312
I5862
sV\u7edb
p4313
I4035
sV\u62e3
p4314
I1890
sV\u8f66
p4315
I5280
sV\u90ef
p4316
I5480
sV\u5ff1
p4317
I1608
sV\u7701
p4318
I3503
sV\u5582
p4319
I764
sV\u9a88
p4320
I6065
sV\u5417
p4321
I632
sV\u5e1b
p4322
I1428
sV\u8721
p4323
I4751
sV\u54ac
p4324
I696
sV\u7a33
p4325
I3728
sV\u81ba
p4326
I4327
sV\u8bbe
p4327
I4974
sV\u5145
p4328
I314
sV\u4f51
p4329
I175
sV\u9cdc
p4330
I6171
sV\u5bde
p4331
I1235
sV\u6761
p4332
I2301
sV\u80e4
p4333
I4273
sV\u4fe6
p4334
I229
sV\u566b
p4335
I817
sV\u73ee
p4336
I3269
sV\u9975
p4337
I6003
sV\u7383
p4338
I3233
sV\u4f10
p4339
I145
sV\u6b93
p4340
I2610
sV\u8c12
p4341
I5046
sV\u5299
p4342
I457
sV\u9f9b
p4343
I6333
sV\u6124
p4344
I1728
sV\u522e
p4345
I425
sV\u7eb1
p4346
I3999
sV\u62b9
p4347
I1863
sV\u8338
p4348
I4474
sV\u6cbd
p4349
I2720
sV\u8d3c
p4350
I5134
sV\u96c1
p4351
I5812
sV\u90c5
p4352
I5461
sV\u5dc7
p4353
I1387
sV\u84cd
p4354
I4609
sV\u624e
p4355
I1812
sV\u88d5
p4356
I4857
sV\u7fdb
p4357
I4178
sV\u79df
p4358
I3706
sV\u63e3
p4359
I1991
sV\u97eb
p4360
I5899
sV\u54ed
p4361
I723
sV\u756c
p4362
I3388
sV\u6d7c
p4363
I2812
sV\u89ff
p4364
I4927
sV\u7601
p4365
I3433
sV\u5482
p4366
I677
sV\u5e86
p4367
I1468
sV\u8f90
p4368
I5316
sV\u7696
p4369
I3462
sV\u5f1b
p4370
I1524
sV\u591f
p4371
I1000
sV\u92ae
p4372
I5566
sV\u7b33
p4373
I3804
sV\u9cb2
p4374
I6158
sV\u80ba
p4375
I4258
sV\u693f
p4376
I2472
sV\u5a49
p4377
I1110
sV\u65cc
p4378
I2143
sV\u69d4
p4379
I2517
sV\u7259
p4380
I3147
sV\u50da
p4381
I290
sV\u7c5d
p4382
I3904
sV\u6661
p4383
I2206
sV\u87e0
p4384
I4794
sV\u576b
p4385
I889
sV\u72ee
p4386
I3195
sV\u5b73
p4387
I1179
sV\u9875
p4388
I5911
sV\u60fa
p4389
I1716
sV\u7c83
p4390
I3910
sV\u5408
p4391
I620
sV\u9a97
p4392
I6076
sV\u5d99
p4393
I1380
sV\u909b
p4394
I5442
sV\u539d
p4395
I566
sV\u969f
p4396
I5799
sV\u4fa5
p4397
I205
sV\u6e24
p4398
I2878
sV\u82a7
p4399
I4411
sV\u7bad
p4400
I3855
sV\u5d2e
p4401
I1358
sV\u77b5
p4402
I3557
sV\u9634
p4403
I5753
sV\u4f3a
p4404
I167
sV\u52c7
p4405
I480
sV\u95c9
p4406
I5695
sV\u8bcd
p4407
I4988
sV\u6d4e
p4408
I2793
sV\u70db
p4409
I3064
sV\u525c
p4410
I445
sV\u76df
p4411
I3492
sV\u955e
p4412
I5678
sV\u6ce3
p4413
I2740
sV\u62e7
p4414
I1893
sV\u9eef
p4415
I6297
sV\u7070
p4416
I3031
sV\u627c
p4417
I1834
sV\u7901
p4418
I3643
sV\u7f05
p4419
I4070
sV\u9488
p4420
I5578
sV\u8a8c
p4421
I4935
sV\u6715
p4422
I2265
sV\u7996
p4423
I3687
sV\u7f9a
p4424
I4156
sV\u8921
p4425
I4878
sV\u6ba2
p4426
I2615
sV\u67aa
p4427
I2331
sV\u7433
p4428
I3292
sV\u603b
p4429
I1636
sV\u5941
p4430
I1016
sV\u7ec4
p4431
I4016
sV\u6569
p4432
I2097
sV\u586b
p4433
I954
sV\u9171
p4434
I5515
sV\u5473
p4435
I670
sV\u9a02
p4436
I6032
sV\u5f04
p4437
I1515
sV\u7387
p4438
I3235
sV\u9006
p4439
I5380
sV\u960a
p4440
I5727
sV\u8c0e
p4441
I5042
sV\u6593
p4442
I2113
sV\u8212
p4443
I4351
sV\u529d
p4444
I460
sV\u731c
p4445
I3210
sV\u979f
p4446
I5882
sV\u6920
p4447
I2468
sV\u8da3
p4448
I5181
sV\u4ea5
p4449
I89
sV\u6cb9
p4450
I2717
sV\u8d38
p4451
I5130
sV\u4e3a
p4452
I40
sV\u62bd
p4453
I1865
sV\u98c1
p4454
I5954
sV\u53c7
p4455
I579
sV\u4fcf
p4456
I220
sV\u6252
p4457
I1814
sV\u5d58
p4458
I1368
sV\u9e5a
p4459
I6240
sV\u535c
p4460
I534
sV\u95f3
p4461
I5706
sV\u56f5
p4462
I843
sV\u8bf7
p4463
I5022
sV\u6d78
p4464
I2811
sV\u81fb
p4465
I4339
sV\u7801
p4466
I3582
sV\u9980
p4467
I6010
sV\u9f84
p4468
I6325
sV\u7409
p4469
I3275
sV\u9588
p4470
I5691
sV\u8b8c
p4471
I4945
sV\u6615
p4472
I2179
sV\u5b17
p4473
I1152
sV\u571f
p4474
I858
sV\u749e
p4475
I3324
sV\u8821
p4476
I4803
sV\u8e25
p4477
I5225
sV\u60a6
p4478
I1680
sV\u7f2f
p4479
I4108
sV\u51b0
p4480
I364
sV\u7533
p4481
I3367
sV\u6b37
p4482
I2573
sV\u79c0
p4483
I3696
sV\u5e45
p4484
I1447
sV\u67d4
p4485
I2355
sV\u58d6
p4486
I979
sV\u725d
p4487
I3149
sV\u54de
p4488
I716
sV\u6861
p4489
I2411
sV\u8fe4
p4490
I5358
sV\u6469
p4491
I2031
sV\u85e8
p4492
I4672
sV\u596b
p4493
I1035
sV\u9a6d
p4494
I6040
sV\u5f6f
p4495
I1554
sV\u72f2
p4496
I3198
sV\u9675
p4497
I5784
sV\u8c79
p4498
I5093
sV\u9902
p4499
I5975
sV\u5c04
p4500
I1250
sV\u5608
p4501
I798
sV\u6c8f
p4502
I2694
sV\u9897
p4503
I5938
sV\u5f99
p4504
I1578
sV\u949f
p4505
I5590
sV\u6c24
p4506
I2652
sV\u6628
p4507
I2185
sV\u75b5
p4508
I3409
sV\u6fb9
p4509
I2997
sV\u83d1
p4510
I4537
sV\u85d5
p4511
I4668
sV\u505c
p4512
I269
sV\u74df
p4513
I3335
sV\u975e
p4514
I5864
sV\u60e7
p4515
I1704
sV\u8366
p4516
I4500
sV\u9aeb
p4517
I6103
sV\u786c
p4518
I3607
sV\u53f1
p4519
I608
sV\u96f3
p4520
I5830
sV\u607c
p4521
I1666
sV\u84ff
p4522
I4620
sV\u9a80
p4523
I6058
sV\u5982
p4524
I1044
sV\u7d05
p4525
I3944
sV\u5386
p4526
I558
sV\u7709
p4527
I3507
sV\u9688
p4528
I5789
sV\u558a
p4529
I770
sV\u690d
p4530
I2463
sV\u6311
p4531
I1913
sV\u7b96
p4532
I3844
sV\u9f19
p4533
I6309
sV\u521b
p4534
I417
sV\u541f
p4535
I636
sV\u8d25
p4536
I5111
sV\u8729
p4537
I4752
sV\u7633
p4538
I3442
sV\u91b2
p4539
I5544
sV\u6837
p4540
I2393
sV\u8bb6
p4541
I4967
sV\u4eb8
p4542
I100
sV\u8dba
p4543
I5186
sV\u9e43
p4544
I6223
sV\u9047
p4545
I5412
sV\u76c8
p4546
I3476
sV\u62d0
p4547
I1877
sV\u5bd6
p4548
I1232
sV\u9ed8
p4549
I6289
sV\u6d65
p4550
I2804
sV\u996d
p4551
I5996
sV\u5c6f
p4552
I1295
sV\u7fee
p4553
I4186
sV\u9575
p4554
I5688
sV\u8f79
p4555
I5296
sV\u7f83
p4556
I4147
sV\u5708
p4557
I853
sV\u6b8b
p4558
I2608
sV\u8012
p4559
I4204
sV\u9997
p4560
I6024
sV\u5e99
p4561
I1480
sV\u7f18
p4562
I4087
sV\u711c
p4563
I3080
sV\u959f
p4564
I5692
sV\u6b20
p4565
I2565
sV\u8fa3
p4566
I5329
sV\u6728
p4567
I2271
sV\u5e2e
p4568
I1437
sV\u5fc3
p4569
I1591
sV\u9cc5
p4570
I6165
sV\u96c9
p4571
I5816
sV\u744a
p4572
I3299
sV\u6e4e
p4573
I2892
sV\u82d1
p4574
I4429
sV\u6052
p4575
I1644
sV\u515c
p4576
I326
sV\u8862
p4577
I4817
sV\u97f3
p4578
I5902
sV\u7574
p4579
I3390
sV\u6f78
p4580
I2982
sV\u85ff
p4581
I4675
sV\u4e8e
p4582
I76
sV\u6211
p4583
I1781
sV\u7a96
p4584
I3757
sV\u901d
p4585
I5393
sV\u769e
p4586
I3465
sV\u68a2
p4587
I2427
sV\u8c25
p4588
I5062
sV\u8629
p4589
I4681
sV\u7d2f
p4590
I3951
sV\u653f
p4591
I2080
sV\u5c45
p4592
I1277
sV\u69cc
p4593
I2514
sV\u8d4f
p4594
I5151
sV\u63d0
p4595
I1986
sV\u5ad6
p4596
I1140
sV\u7e59
p4597
I3975
sV\u91dc
p4598
I5560
sV\u56de
p4599
I835
sV\u6a61
p4600
I2546
sV\u8be0
p4601
I5003
sV\u5d6f
p4602
I1375
sV\u7eee
p4603
I4051
sV\u5773
p4604
I892
sV\u66fe
p4605
I2254
sV\u5a04
p4606
I1089
sV\u7687
p4607
I3456
sV\u8712
p4608
I4744
sV\u5999
p4609
I1054
sV\u6028
p4610
I1632
sV\u9e2c
p4611
I6209
sV\u592e
p4612
I1008
sV\u863c
p4613
I4684
sV\u7f42
p4614
I4117
sV\u91c9
p4615
I5552
sV\u8fcd
p4616
I5344
sV\u5858
p4617
I950
sV\u9b5a
p4618
I6132
sV\u915e
p4619
I5506
sV\u68e3
p4620
I2451
sV\u836a
p4621
I4503
sV\u9aef
p4622
I6105
sV\u7470
p4623
I3309
sV\u53f5
p4624
I611
sV\u667c
p4625
I2220
sV\u5f82
p4626
I1564
sV\u9a84
p4627
I6061
sV\u7109
p4628
I3076
sV\u9088
p4629
I5435
sV\u7d96
p4630
I3959
sV\u541b
p4631
I633
sV\u8d21
p4632
I5107
sV\u63aa
p4633
I1975
sV\u97b2
p4634
I5888
sV\u8bba
p4635
I4971
sV\u623f
p4636
I1802
sV\u9647
p4637
I5764
sV\u5149
p4638
I317
sV\u70c8
p4639
I3061
sV\u4f4d
p4640
I171
sV\u6ecc
p4641
I2930
sV\u64d0
p4642
I2059
sV\u62d4
p4643
I1880
sV\u98d8
p4644
I5965
sV\u6b65
p4645
I2593
sV\u9e02
p4646
I6195
sV\u5899
p4647
I965
sV\u6b24
p4648
I2569
sV\u7ead
p4649
I3995
sV\u5632
p4650
I806
sV\u9ac5
p4651
I6097
sV\u84d1
p4652
I4611
sV\u6652
p4653
I2200
sV\u82d5
p4654
I4433
sV\u5958
p4655
I1030
sV\u75db
p4656
I3423
sV\u8ff7
p4657
I5370
sV\u6978
p4658
I2487
sV\u85fb
p4659
I4674
sV\u677c
p4660
I2312
sV\u83ff
p4661
I4551
sV\u9b84
p4662
I6135
sV\u5486
p4663
I679
sV\u6e0d
p4664
I2868
sV\u6215
p4665
I1783
sV\u5f17
p4666
I1522
sV\u8c21
p4667
I5058
sV\u6ea2
p4668
I2915
sV\u64a6
p4669
I2046
sV\u7d2b
p4670
I3949
sV\u5fac
p4671
I1583
sV\u653b
p4672
I2078
sV\u5c41
p4673
I1274
sV\u8d4b
p4674
I5147
sV\u4e4d
p4675
I52
sV\u65d0
p4676
I2146
sV\u8153
p4677
I4305
sV\u6c61
p4678
I2672
sV\u6a65
p4679
I2547
sV\u8be4
p4680
I5007
sV\u6069
p4681
I1653
sV\u5d6b
p4682
I1373
sV\u9e6d
p4683
I6254
sV\u9471
p4684
I5577
sV\u5173
p4685
I336
sV\u76f2
p4686
I3498
sV\u6afa
p4687
I2561
sV\u867d
p4688
I4700
sV\u7a83
p4689
I3748
sV\u9d02
p4690
I6178
sV\u7487
p4691
I3317
sV\u9706
p4692
I5840
sV\u5208
p4693
I405
sV\u6293
p4694
I1845
sV\u5b99
p4695
I1196
sV\u559d
p4696
I778
sV\u6e20
p4697
I2875
sV\u4f36
p4698
I165
sV\u65bd
p4699
I2132
sV\u843c
p4700
I4572
sV\u54c7
p4701
I708
sV\u7746
p4702
I3525
sV\u4ecb
p4703
I113
sV\u714a
p4704
I3085
sV\u76db
p4705
I3490
sV\u545c
p4706
I664
sV\u70df
p4707
I3067
sV\u4e60
p4708
I63
sV\u8d62
p4709
I5165
sV\u7f01
p4710
I4066
sV\u5d82
p4711
I1377
sV\u9884
p4712
I5924
sV\u5786
p4713
I898
sV\u8c8c
p4714
I5099
sV\u6115
p4715
I1724
sV\u501f
p4716
I252
sV\u8925
p4717
I4879
sV\u6c37
p4718
I2655
sV\u7ec0
p4719
I4012
sV\u5349
p4720
I521
sV\u72c8
p4721
I3180
sV\u8e4b
p4722
I5241
sV\u6ccc
p4723
I2727
sV\u8253
p4724
I4380
sV\u5fd6
p4725
I1599
sV\u7b59
p4726
I3818
sV\u9ad8
p4727
I6100
sV\u59da
p4728
I1075
sV\u94dc
p4729
I5615
sV\u6369
p4730
I1947
sV\u7bee
p4731
I3876
sV\u5f00
p4732
I1511
sV\u5904
p4733
I989
sV\u9606
p4734
I5724
sV\u5308
p4735
I497
sV\u900a
p4736
I5382
sV\u9d97
p4737
I6185
sV\u751c
p4738
I3354
sV\u4ea1
p4739
I86
sV\u6f20
p4740
I2959
sV\u8ba3
p4741
I4950
sV\u6328
p4742
I1925
sV\u76b1
p4743
I3470
sV\u9730
p4744
I5853
sV\u853c
p4745
I4635
sV\u704a
p4746
I3024
sV\u6452
p4747
I2026
sV\u5b58
p4748
I1164
sV\u77db
p4749
I3564
sV\u555c
p4750
I754
sV\u4f60
p4751
I185
sV\u65e7
p4752
I2157
sV\u806a
p4753
I4230
sV\u5ced
p4754
I1337
sV\u50f5
p4755
I297
sV\u7174
p4756
I3096
sV\u5c82
p4757
I1303
sV\u6015
p4758
I1622
sV\u511f
p4759
I306
sV\u7f2b
p4760
I4104
sV\u94b2
p4761
I5598
sV\u613f
p4762
I1732
sV\u82be
p4763
I4424
sV\u9547
p4764
I5665
sV\u5249
p4765
I436
sV\u73c8
p4766
I3256
sV\u6dcc
p4767
I2847
sV\u67d0
p4768
I2351
sV\u61d4
p4769
I1767
sV\u6865
p4770
I2414
sV\u6269
p4771
I1823
sV\u5373
p4772
I548
sV\u9075
p4773
I5428
sV\u8a79
p4774
I4932
sV\u68fa
p4775
I2459
sV\u62fe
p4776
I1905
sV\u6000
p4777
I1614
sV\u9991
p4778
I6020
sV\u6599
p4779
I2115
sV\u871a
p4780
I4749
sV\u8d1e
p4781
I5105
sV\u77a5
p4782
I3550
sV\u5624
p4783
I804
sV\u9926
p4784
I5982
sV\u5c28
p4785
I1264
sV\u80ab
p4786
I4251
sV\u9f2a
p4787
I6313
sV\u86af
p4788
I4718
sV\u6b32
p4789
I2572
sV\u4fb5
p4790
I214
sV\u7136
p4791
I3084
sV\u773a
p4792
I3521
sV\u5bbd
p4793
I1218
sV\u76cf
p4794
I3482
sV\u6458
p4795
I2028
sV\u8bdd
p4796
I5001
sV\u63ed
p4797
I1994
sV\u69f1
p4798
I2523
sV\u75f9
p4799
I3429
sV\u8403
p4800
I4553
sV\u6986
p4801
I2492
sV\u900b
p4802
I5383
sV\u960f
p4803
I5731
sV\u5f15
p4804
I1521
sV\u90a0
p4805
I5443
sV\u53a2
p4806
I568
sV\u96a4
p4807
I5800
sV\u5faa
p4808
I1582
sV\u832d
p4809
I4469
sV\u62ac
p4810
I1860
sV\u68b0
p4811
I2433
sV\u5237
p4812
I429
sV\u9539
p4813
I5657
sV\u83c2
p4814
I4532
sV\u89c6
p4815
I4907
sV\u7f55
p4816
I4124
sV\u67da
p4817
I2358
sV\u8e5f
p4818
I5246
sV\u6dde
p4819
I2852
sV\u79e6
p4820
I3709
sV\u5d69
p4821
I1372
sV\u606b
p4822
I1655
sV\u666f
p4823
I2212
sV\u7277
p4824
I3158
sV\u51f6
p4825
I393
sV\u94f8
p4826
I5629
sV\u57fa
p4827
I928
sV\u5dfe
p4828
I1410
sV\u8c89
p4829
I5097
sV\u9891
p4830
I5934
sV\u5d93
p4831
I1379
sV\u7f14
p4832
I4083
sV\u6499
p4833
I2042
sV\u9e2a
p4834
I6208
sV\u87af
p4835
I4782
sV\u8db3
p4836
I5184
sV\u7c3e
p4837
I3899
sV\u65c3
p4838
I2137
sV\u8d48
p4839
I5144
sV\u71cb
p4840
I3112
sV\u6b5c
p4841
I2588
sV\u4fdf
p4842
I227
sV\u90e1
p4843
I5472
sV\u55e3
p4844
I791
sV\u62ed
p4845
I1897
sV\u68f1
p4846
I2455
sV\u5578
p4847
I760
sV\u7afd
p4848
I3781
sV\u8b07
p4849
I4938
sV\u520d
p4850
I407
sV\u970f
p4851
I5845
sV\u748e
p4852
I3320
sV\u5811
p4853
I934
sV\u5e15
p4854
I1423
sV\u63ac
p4855
I1976
sV\u8e35
p4856
I5232
sV\u6041
p4857
I1638
sV\u6c49
p4858
I2662
sV\u724d
p4859
I3141
sV\u53cc
p4860
I584
sV\u94ce
p4861
I5608
sV\u59d0
p4862
I1070
sV\u66da
p4863
I2239
sV\u6cde
p4864
I2736
sV\u7eea
p4865
I4048
sV\u676f
p4866
I2306
sV\u8ff4
p4867
I5369
sV\u95f8
p4868
I5711
sV\u56fa
p4869
I846
sV\u8585
p4870
I4652
sV\u8f89
p4871
I5310
sV\u918d
p4872
I5532
sV\u548f
p4873
I684
sV\u5e93
p4874
I1475
sV\u851a
p4875
I4627
sV\u5220
p4876
I419
sV\u9122
p4877
I5490
sV\u5e28
p4878
I1435
sV\u672e
p4879
I2276
sV\u753a
p4880
I3371
sV\u8e48
p4881
I5238
sV\u574e
p4882
I873
sV\u7ed3
p4883
I4029
sV\u876e
p4884
I4768
sV\u79fd
p4885
I3717
sV\u9f7e
p4886
I6321
sV\u6b86
p4887
I2604
sV\u4f09
p4888
I140
sV\u778e
p4889
I3547
sV\u6a1b
p4890
I2530
sV\u889c
p4891
I4841
sV\u51a2
p4892
I359
sV\u94a4
p4893
I5592
sV\u7827
p4894
I3593
sV\u5ba6
p4895
I1208
sV\u9ea8
p4896
I6273
sV\u5daa
p4897
I1381
sV\u60ac
p4898
I1683
sV\u8d35
p4899
I5127
sV\u6cb4
p4900
I2714
sV\u9739
p4901
I5856
sV\u5c3f
p4902
I1272
sV\u81c2
p4903
I4329
sV\u6545
p4904
I2081
sV\u8bc6
p4905
I4982
sV\u7b51
p4906
I3814
sV\u63d6
p4907
I1988
sV\u5361
p4908
I537
sV\u5565
p4909
I755
sV\u7be6
p4910
I3873
sV\u5f69
p4911
I1550
sV\u626b
p4912
I1825
sV\u53f6
p4913
I612
sV\u5ffe
p4914
I1612
sV\u538b
p4915
I560
sV\u558f
p4916
I773
sV\u9a91
p4917
I6072
sV\u7b10
p4918
I3788
sV\u841a
p4919
I4562
sV\u8e1e
p4920
I5221
sV\u5320
p4921
I504
sV\u9022
p4922
I5398
sV\u5524
p4923
I737
sV\u7ea9
p4924
I3991
sV\u83ab
p4925
I4522
sV\u91b7
p4926
I5546
sV\u7236
p4927
I3131
sV\u8340
p4928
I4476
sV\u914c
p4929
I5501
sV\u75cf
p4930
I3419
sV\u86d9
p4931
I4725
sV\u7360
p4932
I3227
sV\u7564
p4933
I3384
sV\u7f68
p4934
I4135
sV\u60ed
p4935
I1708
sV\u8872
p4936
I4826
sV\u8703
p4937
I4738
sV\u4e09
p4938
I9
sV\u500d
p4939
I243
sV\u768e
p4940
I3459
sV\u5a11
p4941
I1096
sV\u9f13
p4942
I6307
sV\u6d1f
p4943
I2767
sV\u95a4
p4944
I5693
sV\u61ac
p4945
I1758
sV\u6db4
p4946
I2837
sV\u5d3f
p4947
I1361
sV\u6241
p4948
I1804
sV\u6445
p4949
I2019
sV\u51cc
p4950
I379
sV\u96ce
p4951
I5820
sV\u7a51
p4952
I3738
sV\u5bd0
p4953
I1228
sV\u98d2
p4954
I5959
sV\u62d6
p4955
I1881
sV\u6ede
p4956
I2938
sV\u5261
p4957
I446
sV\u9967
p4958
I5992
sV\u7ae6
p4959
I3776
sV\u81ec
p4960
I4335
sV\u8bf0
p4961
I5016
sV\u54fa
p4962
I727
sV\u6400
p4963
I1999
sV\u8385
p4964
I4511
sV\u6808
p4965
I2378
sV\u548b
p4966
I680
sV\u978d
p4967
I5877
sV\u760c
p4968
I3434
sV\u5893
p4969
I964
sV\u7a14
p4970
I3723
sV\u4e1c
p4971
I24
sV\u5420
p4972
I637
sV\u9722
p4973
I5850
sV\u5224
p4974
I420
sV\u79a9
p4975
I3689
sV\u82af
p4976
I4416
sV\u733a
p4977
I3222
sV\u5fbd
p4978
I1590
sV\u793e
p4979
I3647
sV\u8244
p4980
I4373
sV\u6ec7
p4981
I2928
sV\u964c
p4982
I5768
sV\u5f52
p4983
I1540
sV\u9a54
p4984
I6038
sV\u8fdd
p4985
I5354
sV\u816e
p4986
I4310
sV\u6df1
p4987
I2859
sV\u8f72
p4988
I5291
sV\u6bf5
p4989
I2641
sV\u9576
p4990
I5689
sV\u71f9
p4991
I3120
sV\u5e7c
p4992
I1464
sV\u8003
p4993
I4195
sV\u6b8a
p4994
I2607
sV\u5d11
p4995
I1346
sV\u8098
p4996
I4241
sV\u6c1b
p4997
I2651
sV\u6a1f
p4998
I2531
sV\u7023
p4999
I3020
sV\u57a2
p5000
I906
sV\u98a8
p5001
I5951
sV\u5baa
p5002
I1209
sV\u8d31
p5003
I5123
sV\u9139
p5004
I5495
sV\u70b8
p5005
I3054
sV\u8bca
p5006
I4985
sV\u774d
p5007
I3527
sV\u91ce
p5008
I5556
sV\u5ad4
p5009
I1139
sV\u65d6
p5010
I2148
sV\u9063
p5011
I5421
sV\u77e2
p5012
I3567
sV\u9e67
p5013
I6249
sV\u7bea
p5014
I3875
sV\u626f
p5015
I1829
sV\u8af4
p5016
I4937
sV\u90f8
p5017
I5482
sV\u7c7b
p5018
I3909
sV\u9efc
p5019
I6300
sV\u7a7f
p5020
I3746
sV\u6500
p5021
I2069
sV\u558b
p5022
I771
sV\u968d
p5023
I5791
sV\u9c91
p5024
I6147
sV\u5993
p5025
I1052
sV\u9a95
p5026
I6074
sV\u7b14
p5027
I3790
sV\u7436
p5028
I3295
sV\u783e
p5029
I3599
sV\u8344
p5030
I4478
sV\u504e
p5031
I265
sV\u9b54
p5032
I6131
sV\u80d9
p5033
I4267
sV\u6f5c
p5034
I2975
sV\u94e1
p5035
I5617
sV\u5fe7
p5036
I1606
sV\u7968
p5037
I3671
sV\u6cf1
p5038
I2749
sV\u8e72
p5039
I5253
sV\u70f9
p5040
I3074
sV\u5178
p5041
I341
sV\u7efd
p5042
I4062
sV\u5f7c
p5043
I1561
sV\u987e
p5044
I5919
sV\u6682
p5045
I2221
sV\u6c86
p5046
I2689
sV\u950b
p5047
I5640
sV\u708e
p5048
I3041
sV\u5c11
p5049
I1255
sV\u6717
p5050
I2266
sV\u8198
p5051
I4322
sV\u6d1b
p5052
I2765
sV\u8f9c
p5053
I5326
sV\u7f27
p5054
I4100
sV\u99a8
p5055
I6027
sV\u5aaa
p5056
I1126
sV\u67ac
p5057
I2333
sV\u8c31
p5058
I5072
sV\u6bb4
p5059
I2617
sV\u9e3d
p5060
I6219
sV\u90ce
p5061
I5464
sV\u5bd4
p5062
I1231
sV\u8757
p5063
I4764
sV\u8d5b
p5064
I5161
sV\u62da
p5065
I1885
sV\u4e5d
p5066
I60
sV\u9163
p5067
I5509
sV\u5265
p5068
I447
sV\u9f67
p5069
I6320
sV\u656b
p5070
I2098
sV\u4ef2
p5071
I132
sV\u8bf4
p5072
I5020
sV\u52fa
p5073
I490
sV\u7b7f
p5074
I3834
sV\u7814
p5075
I3588
sV\u811a
p5076
I4294
sV\u6d9d
p5077
I2825
sV\u9522
p5078
I5646
sV\u7ba9
p5079
I3851
sV\u80af
p5080
I4253
sV\u6d32
p5081
I2777
sV\u7736
p5082
I3518
sV\u9ebb
p5083
I6280
sV\u98bf
p5084
I5953
sV\u7b3e
p5085
I3807
sV\u8640
p5086
I4685
sV\u4f46
p5087
I170
sV\u8a48
p5088
I4931
sV\u76cb
p5089
I3478
sV\u534e
p5090
I525
sV\u6258
p5091
I1817
sV\u8ddd
p5092
I5201
sV\u6c5c
p5093
I2667
sV\u97e1
p5094
I5895
sV\u65ed
p5095
I2161
sV\u4e70
p5096
I66
sV\u9776
p5097
I5873
sV\u5278
p5098
I453
sV\u917a
p5099
I5521
sV\u5c7c
p5100
I1300
sV\u960b
p5101
I5728
sV\u900f
p5102
I5385
sV\u5915
p5103
I995
sV\u7c27
p5104
I3893
sV\u9aa8
p5105
I6090
sV\u59aa
p5106
I1060
sV\u64ac
p5107
I2048
sV\u8935
p5108
I4885
sV\u5e3b
p5109
I1442
sV\u7cbc
p5110
I3929
sV\u6b49
p5111
I2584
sV\u89ca
p5112
I4911
sV\u7f51
p5113
I4122
sV\u7955
p5114
I3658
sV\u8457
p5115
I4577
sV\u5761
p5116
I884
sV\u75e2
p5117
I3425
sV\u5165
p5118
I328
sV\u7fe6
p5119
I4184
sV\u5b69
p5120
I1175
sV\u84ec
p5121
I4618
sV\u606f
p5122
I1658
sV\u88f4
p5123
I4866
sV\u7e7b
p5124
I3976
sV\u51fa
p5125
I396
sV\u8681
p5126
I4704
sV\u6700
p5127
I2256
sV\u8a89
p5128
I4934
sV\u578b
p5129
I899
sV\u9e91
p5130
I6265
sV\u5b93
p5131
I1192
sV\u8616
p5132
I4679
sV\u9e26
p5133
I6206
sV\u87ab
p5134
I4778
sV\u622e
p5135
I1794
sV\u8bb3
p5136
I4964
sV\u6c32
p5137
I2653
sV\u8740
p5138
I4758
sV\u63c3
p5139
I1980
sV\u6dc7
p5140
I2845
sV\u954c
p5141
I5668
sV\u9f50
p5142
I6318
sV\u7bd3
p5143
I3865
sV\u9954
p5144
I5987
sV\u8cdd
p5145
I5102
sV\u53e3
p5146
I595
sV\u7164
p5147
I3091
sV\u5de7
p5148
I1398
sV\u64ed
p5149
I2067
sV\u826e
p5150
I4388
sV\u68f5
p5151
I2457
sV\u9676
p5152
I5785
sV\u5378
p5153
I552
sV\u5d7c
p5154
I1376
sV\u9a7e
p5155
I6056
sV\u8303
p5156
I4451
sV\u6e86
p5157
I2907
sV\u540d
p5158
I624
sV\u910f
p5159
I5485
sV\u5e11
p5160
I1420
sV\u9b13
p5161
I6112
sV\u7c92
p5162
I3912
sV\u5815
p5163
I935
sV\u8398
p5164
I4517
sV\u691f
p5165
I2467
sV\u97a0
p5166
I5883
sV\u7d27
p5167
I3948
sV\u5ea6
p5168
I1487
sV\u8e31
p5169
I5231
sV\u69b4
p5170
I2506
sV\u6641
p5171
I2194
sV\u84c2
p5172
I4605
sV\u7855
p5173
I3604
sV\u59d4
p5174
I1074
sV\u60da
p5175
I1699
sV\u895f
p5176
I4894
sV\u74e2
p5177
I3337
sV\u5065
p5178
I271
sV\u7ee6
p5179
I4044
sV\u8ff0
p5180
I5367
sV\u8981
p5181
I4900
sV\u6800
p5182
I2375
sV\u8f85
p5183
I5306
sV\u5e8f
p5184
I1472
sV\u9191
p5185
I5534
sV\u5820
p5186
I937
sV\u9126
p5187
I5492
sV\u5428
p5188
I639
sV\u88ab
p5189
I4845
sV\u8eaf
p5190
I5266
sV\u6d2e
p5191
I2775
sV\u6332
p5192
I1928
sV\u9ab7
p5193
I6092
sV\u90bb
p5194
I5458
sV\u7f3a
p5195
I4116
sV\u8840
p5196
I4807
sV\u8e44
p5197
I5236
sV\u78cb
p5198
I3630
sV\u7ecf
p5199
I4027
sV\u5d4e
p5200
I1366
sV\u9050
p5201
I5415
sV\u5352
p5202
I528
sV\u9654
p5203
I5771
sV\u5ce3
p5204
I1331
sV\u9976
p5205
I6004
sV\u73fd
p5206
I3271
sV\u8c03
p5207
I5033
sV\u6b82
p5208
I2601
sV\u6a17
p5209
I2529
sV\u601b
p5210
I1625
sV\u829c
p5211
I4404
sV\u661f
p5212
I2181
sV\u98a0
p5213
I5945
sV\u5ba2
p5214
I1204
sV\u8131
p5215
I4297
sV\u60b0
p5216
I1686
sV\u66b4
p5217
I2234
sV\u72bc
p5218
I3176
sV\u563f
p5219
I811
sV\u8bc2
p5220
I4978
sV\u4ec4
p5221
I107
sV\u81c6
p5222
I4330
sV\u6549
p5223
I2083
sV\u87ca
p5224
I4789
sV\u5acc
p5225
I1137
sV\u7a77
p5226
I3743
sV\u8881
p5227
I4831
sV\u8e85
p5228
I5258
sV\u8489
p5229
I4592
sV\u9091
p5230
I5437
sV\u6c99
p5231
I2698
sV\u78a1
p5232
I3621
sV\u7ea5
p5233
I3987
sV\u9026
p5234
I5400
sV\u962a
p5235
I5747
sV\u8548
p5236
I4638
sV\u79cb
p5237
I3700
sV\u5c4e
p5238
I1281
sV\u7960
p5239
I3667
sV\u9ee5
p5240
I6295
sV\u7f64
p5241
I4133
sV\u94e9
p5242
I5621
sV\u8c6e
p5243
I5089
sV\u8272
p5244
I4391
sV\u66f5
p5245
I2250
sV\u9876
p5246
I5912
sV\u9e7a
p5247
I6258
sV\u8307
p5248
I4455
sS'<pad>'
p5249
I0
sV\u7292
p5250
I3167
sV\u4e9a
p5251
I83
sV\u671f
p5252
I2269
sV\u4f2f
p5253
I161
sV\u6841
p5254
I2401
sV\u4fc4
p5255
I217
sV\u80c6
p5256
I4263
sV\u86ca
p5257
I4723
sV\u5bcc
p5258
I1227
sV\u57d4
p5259
I918
sV\u6eda
p5260
I2936
sV\u64de
p5261
I2062
sV\u70e6
p5262
I3069
sV\u696b
p5263
I2483
sV\u76ea
p5264
I3495
sV\u8bec
p5265
I5012
sV\u58f6
p5266
I986
sV\u5efa
p5267
I1509
sV\u777f
p5268
I3543
sV\u8d85
p5269
I5178
sV\u998d
p5270
I6018
sV\u780c
p5271
I3584
sV\u5c8f
p5272
I1306
sV\u4e18
p5273
I20
sV\u619d
p5274
I1754
sV\u7ba1
p5275
I3847
sV\u5c24
p5276
I1262
sV\u77a9
p5277
I3552
sV\u51bd
p5278
I373
sV\u94bf
p5279
I5603
sV\u60c7
p5280
I1693
sV\u7acb
p5281
I3768
sV\u5152
p5282
I321
sV\u8fd9
p5283
I5351
sV\u6e58
p5284
I2897
sV\u50e7
p5285
I293
sV\u97e9
p5286
I5898
sV\u8f6e
p5287
I5287
sV\u5e78
p5288
I1462
sV\u6982
p5289
I2490
sV\u8007
p5290
I4199
sV\u590d
p5291
I991
sV\u7f8e
p5292
I4153
sV\u9613
p5293
I5735
sV\u6817
p5294
I2387
sV\u621b
p5295
I1787
sV\u9aa0
p5296
I6083
sV\u9ca4
p5297
I6154
sV\u53a6
p5298
I570
sV\u892d
p5299
I4883
sV\u8331
p5300
I4471
sV\u7eb8
p5301
I4005
sV\u523b
p5302
I433
sV\u70bc
p5303
I3057
sV\u89c2
p5304
I4904
sV\u6d45
p5305
I2787
sV\u6749
p5306
I2288
sV\u8857
p5307
I4814
sV\u6bd6
p5308
I2632
sV\u4f59
p5309
I179
sV\u825b
p5310
I4383
sV\u67de
p5311
I2361
sV\u9e63
p5312
I6245
sV\u4fee
p5313
I234
sV\u6b00
p5314
I2562
sV\u4f83
p5315
I193
sV\u8c85
p5316
I5096
sV\u6d04
p5317
I2758
sV\u6708
p5318
I2258
sV\u5b8b
p5319
I1189
sV\u988d
p5320
I5931
sV\u5793
p5321
I902
sV\u7514
p5322
I3351
sV\u4f18
p5323
I149
sV\u8c1a
p5324
I5053
sV\u609d
p5325
I1676
sV\u7ca5
p5326
I3921
sV\u5d24
p5327
I1353
sV\u5728
p5328
I860
sV\u8bab
p5329
I4957
sV\u87b3
p5330
I4783
sV\u7c3a
p5331
I3898
sV\u8b40
p5332
I4940
sV\u8d44
p5333
I5141
sV\u8748
p5334
I4760
sV\u6f58
p5335
I2974
sV\u80dd
p5336
I4270
sV\u7b60
p5337
I3823
sV\u96e9
p5338
I5827
sV\u7768
p5339
I3537
sV\u62f1
p5340
I1899
sV\u9a76
p5341
I6048
sV\u70fd
p5342
I3075
sV\u517c
p5343
I344
sV\u6286
p5344
I1840
sV\u5211
p5345
I409
sV\u9713
p5346
I5846
sV\u7092
p5347
I3042
sV\u5415
p5348
I631
sV\u8f98
p5349
I5323
sV\u631b
p5350
I1916
sV\u819c
p5351
I4323
sV\u7f23
p5352
I4096
sV\u58a2
p5353
I969
sV\u54aa
p5354
I694
sV\u8231
p5355
I4363
sV\u5937
p5356
I1012
sV\u7fb8
p5357
I4164
sV\u533b
p5358
I512
sV\u88c2
p5359
I4852
sV\u84ca
p5360
I4608
sV\u9ece
p5361
I6285
sV\u7251
p5362
I3142
sV\u7455
p5363
I3300
sV\u55d4
p5364
I787
sV\u4e59
p5365
I59
sV\u835b
p5366
I4491
sV\u6cda
p5367
I2733
sV\u5c65
p5368
I1292
sV\u5669
p5369
I815
sV\u83f0
p5370
I4544
sV\u6773
p5371
I2309
sV\u7977
p5372
I3675
sV\u757f
p5373
I3394
sV\u56fe
p5374
I848
sV\u8d81
p5375
I5177
sV\u7410
p5376
I3279
sV\u679d
p5377
I2326
sV\u9526
p5378
I5650
sV\u59b9
p5379
I1064
sV\u94bb
p5380
I5602
sV\u7b3a
p5381
I3805
sV\u68c3
p5382
I2440
sV\u8a44
p5383
I4930
sV\u594e
p5384
I1023
sV\u9450
p5385
I5574
sV\u4ed7
p5386
I121
sV\u896e
p5387
I4897
sV\u65f1
p5388
I2163
sV\u567c
p5389
I822
sV\u917e
p5390
I5523
sV\u8803
p5391
I4802
sV\u638a
p5392
I1960
sV\u7792
p5393
I3549
sV\u5315
p5394
I499
sV\u6e17
p5395
I2872
sV\u621f
p5396
I1788
sV\u9ca0
p5397
I6152
sV\u9aa4
p5398
I6086
sV\u64b0
p5399
I2051
sV\u8335
p5400
I4472
sV\u5e37
p5401
I1440
sV\u543b
p5402
I650
sV\u6d41
p5403
I2785
sV\u8fc2
p5404
I5339
sV\u83ca
p5405
I4535
sV\u7f4d
p5406
I4120
sV\u845b
p5407
I4578
sV\u6bda
p5408
I2635
sV\u825f
p5409
I4384
sV\u5b65
p5410
I1173
sV\u9667
p5411
I5778
sV\u73ea
p5412
I3267
sV\u6073
p5413
I1660
sV\u82f4
p5414
I4445
sV\u5bfa
p5415
I1245
sV\u8089
p5416
I4236
sV\u6108
p5417
I1719
sV\u7f0c
p5418
I4077
sV\u5b8f
p5419
I1191
sV\u8c16
p5420
I5050
sV\u8a1a
p5421
I4929
sV\u669d
p5422
I2230
sV\u9e22
p5423
I6203
sV\u7aa5
p5424
I3764
sV\u8dab
p5425
I5182
sV\u4ead
p5426
I96
sV\u8baf
p5427
I4961
sV\u81b3
p5428
I4325
sV\u8d40
p5429
I5138
sV\u69c3
p5430
I2512
sV\u4e42
p5431
I44
sV\u9550
p5432
I5670
sV\u4fd7
p5433
I222
sV\u88d9
p5434
I4859
sV\u675c
p5435
I2297
sV\u59e3
p5436
I1079
sV\u7168
p5437
I3094
sV\u886e
p5438
I4824
sV\u78f9
p5439
I3640
sV\u5978
p5440
I1040
sV\u9a7a
p5441
I6052
sV\u577c
p5442
I895
sV\u8707
p5443
I4739
sV\u628a
p5444
I1842
sV\u788e
p5445
I3614
sV\u5411
p5446
I628
sV\u631f
p5447
I1919
sV\u54a6
p5448
I691
sV\u91a8
p5449
I5539
sV\u52aa
p5450
I468
sV\u6fac
p5451
I2994
sV\u8431
p5452
I4570
sV\u65b0
p5453
I2128
sV\u8235
p5454
I4367
sV\u963d
p5455
I5757
sV\u533f
p5456
I515
sV\u6c41
p5457
I2659
sV\u5fcc
p5458
I1595
sV\u98ce
p5459
I5956
sV\u55d0
p5460
I785
sV\u96d2
p5461
I5822
sV\u53d4
p5462
I587
sV\u6cd6
p5463
I2731
sV\u835f
p5464
I4494
sV\u5c61
p5465
I1290
sV\u7ee2
p5466
I4041
sV\u74e6
p5467
I3339
sV\u99f8
p5468
I6030
sV\u50fe
p5469
I299
sV\u8389
p5470
I4513
sV\u6208
p5471
I1774
sV\u5e8b
p5472
I1471
sV\u7c0c
p5473
I3887
sV\u9791
p5474
I5878
sV\u891a
p5475
I4876
sV\u659d
p5476
I2118
sV\u7fa1
p5477
I4159
sV\u5824
p5478
I939
sV\u73a9
p5479
I3244
sV\u5228
p5480
I421
sV\u8eab
p5481
I5264
sV\u88af
p5482
I4847
sV\u82b3
p5483
I4419
sV\u7f36
p5484
I4114
sV\u5bb9
p5485
I1217
sV\u793a
p5486
I3645
sV\u733e
p5487
I3223
sV\u8e40
p5488
I5234
sV\u7ecb
p5489
I4023
sV\u9650
p5490
I5770
sV\u8bd9
p5491
I4997
sV\u6a58
p5492
I2543
sV\u5ae3
p5493
I1145
sV\u67f1
p5494
I2368
sV\u61f5
p5495
I1770
sV\u997a
p5496
I6006
sV\u547c
p5497
I674
sV\u4f01
p5498
I139
sV\u6d82
p5499
I2813
sV\u8407
p5500
I4555
sV\u7b8e
p5501
I3839
sV\u849c
p5502
I4595
sV\u98a4
p5503
I5949
sV\u57a6
p5504
I909
sV\u4e2b
p5505
I33
sV\u8d2d
p5506
I5119
sV\u60b4
p5507
I1688
sV\u563b
p5508
I810
sV\u4ec0
p5509
I104
sV\u8dc2
p5510
I5189
sV\u87c6
p5511
I4788
sV\u6349
p5512
I1935
sV\u81ca
p5513
I4331
sV\u69da
p5514
I2518
sV\u5965
p5515
I1034
sV\u6e6b
p5516
I2900
sV\u86f0
p5517
I4732
sV\u6273
p5518
I1831
sV\u767b
p5519
I3450
sV\u707f
p5520
I3037
sV\u8e81
p5521
I5257
sV\u8885
p5522
I4834
sV\u6308
p5523
I1910
sV\u5f8b
p5524
I1571
sV\u9c8d
p5525
I6146
sV\u5393
p5526
I563
sV\u9095
p5527
I5439
sV\u821e
p5528
I4355
sV\u7ea1
p5529
I3983
sV\u5f20
p5530
I1526
sV\u5924
p5531
I1001
sV\u8fab
p5532
I5332
sV\u83b3
p5533
I4525
sV\u783a
p5534
I3597
sV\u54bd
p5535
I702
sV\u91bf
p5536
I5550
sV\u8944
p5537
I4889
sV\u8348
p5538
I4482
sV\u73d3
p5539
I3262
sV\u84dd
p5540
I4613
sV\u7af9
p5541
I3779
sV\u987a
p5542
I5916
sV\u557c
p5543
I762
sV\u4e01
p5544
I5
sV\u6c82
p5545
I2685
sV\u9f0b
p5546
I6303
sV\u5015
p5547
I246
sV\u6d17
p5548
I2763
sV\u671b
p5549
I2267
sV\u859c
p5550
I4657
sV\u611f
p5551
I1726
sV\u4f2b
p5552
I160
sV\u8c2d
p5553
I5069
sV\u67b0
p5554
I2336
sV\u7bb8
p5555
I3859
sV\u573b
p5556
I868
sV\u75bc
p5557
I3411
sV\u513f
p5558
I309
sV\u6249
p5559
I1809
sV\u7c4d
p5560
I3903
sV\u8d57
p5561
I5157
sV\u68da
p5562
I2449
sV\u5e61
p5563
I1453
sV\u5269
p5564
I449
sV\u8dec
p5565
I5207
sV\u696f
p5566
I2485
sV\u81f4
p5567
I4338
sV\u5ef6
p5568
I1507
sV\u95fc
p5569
I5715
sV\u52fe
p5570
I491
sV\u9181
p5571
I5525
sV\u9785
p5572
I5875
sV\u620c
p5573
I1776
sV\u8f95
p5574
I5320
sV\u6e14
p5575
I2871
sV\u5a1c
p5576
I1098
sV\u67a5
p5577
I2329
sV\u6da9
p5578
I2833
sV\u5fb5
p5579
I1587
sV\u82b7
p5580
I4420
sV\u673a
p5581
I2281
sV\u6d3e
p5582
I2783
sV\u9644
p5583
I5761
sV\u60cb
p5584
I1695
sV\u6cd3
p5585
I2729
sV\u87e5
p5586
I4796
sV\u6664
p5587
I2207
sV\u6c68
p5588
I2674
sV\u73ed
p5589
I3268
sV\u956e
p5590
I5685
sV\u5e74
p5591
I1460
sV\u5101
p5592
I300
sV\u800b
p5593
I4200
sV\u7f8a
p5594
I4151
sV\u8c13
p5595
I5047
sV\u6b92
p5596
I2609
sV\u4f15
p5597
I147
sV\u9a9c
p5598
I6080
sV\u80a0
p5599
I4244
sV\u86a4
p5600
I4713
sV\u4faa
p5601
I209
sV\u72ac
p5602
I3170
sV\u78b0
p5603
I3625
sV\u634d
p5604
I1937
sV\u8bd2
p5605
I4992
sV\u6f55
p5606
I2973
sV\u4ed4
p5607
I118
sV\u5b5d
p5608
I1169
sV\u8463
p5609
I4580
sV\u706b
p5610
I3028
sV\u766f
p5611
I3448
sV\u7c73
p5612
I3907
sV\u6e7f
p5613
I2904
sV\u5583
p5614
I765
sV\u9685
p5615
I5787
sV\u7704
p5616
I3504
sV\u5b87
p5617
I1186
sV\u828d
p5618
I4398
sV\u6f14
p5619
I2955
sV\u9016
p5620
I5390
sV\u961a
p5621
I5741
sV\u7a9d
p5622
I3760
sV\u8e2a
p5623
I5228
sV\u52ad
p5624
I471
sV\u742e
p5625
I3289
sV\u5eb5
p5626
I1492
sV\u83b7
p5627
I4526
sV\u6c3e
p5628
I2657
sV\u5242
p5629
I434
sV\u7bc7
p5630
I3862
sV\u61cb
p5631
I1764
sV\u67cf
p5632
I2350
sV\u53d7
p5633
I589
sV\u94d9
p5634
I5613
sV\u7b5c
p5635
I3821
sV\u80e1
p5636
I4272
sV\u72ed
p5637
I3194
sV\u536c
p5638
I543
sV\u7ef5
p5639
I4056
sV\u5f74
p5640
I1557
sV\u867a
p5641
I4699
sV\u9503
p5642
I5635
sV\u7282
p5643
I3164
sV\u5c09
p5644
I1252
sV\u4e15
p5645
I18
sV\u7317
p5646
I3208
sV\u7f1f
p5647
I4094
sV\u6b27
p5648
I2570
sV\u572f
p5649
I864
sV\u51c0
p5650
I374
sV\u624d
p5651
I1811
sV\u6851
p5652
I2408
sV\u5459
p5653
I663
sV\u8563
p5654
I4646
sV\u62e2
p5655
I1889
sV\u6eea
p5656
I2946
sV\u54ee
p5657
I724
sV\u6377
p5658
I1953
sV\u8bfc
p5659
I5027
sV\u9f89
p5660
I6328
sV\u6c14
p5661
I2650
sV\u5618
p5662
I803
sV\u63a1
p5663
I1968
sV\u65a5
p5664
I2122
sV\u8b26
p5665
I4939
sV\u8d2a
p5666
I5116
sV\u772e
p5667
I3517
sV\u9eb3
p5668
I6276
sV\u6f3e
p5669
I2967
sV\u9e48
p5670
I6228
sV\u804c
p5671
I4224
sV\u6ed3
p5672
I2933
sV\u5adb
p5673
I1142
sV\u83e1
p5674
I4542
sV\u8fe9
p5675
I5362
sV\u506c
p5676
I272
sV\u7bf1
p5677
I3877
sV\u9972
p5678
I6001
sV\u5c74
p5679
I1297
sV\u67f9
p5680
I2372
sV\u69fd
p5681
I2525
sV\u8f7e
p5682
I5301
sV\u9603
p5683
I5722
sV\u840f
p5684
I4560
sV\u9698
p5685
I5796
sV\u989c
p5686
I5942
sV\u7c1f
p5687
I3890
sV\u522b
p5688
I423
sV\u70ac
p5689
I3048
sV\u542f
p5690
I645
sV\u7545
p5691
I3375
sV\u54c4
p5692
I707
sV\u89d2
p5693
I4917
sV\u6d55
p5694
I2800
sV\u9057
p5695
I5419
sV\u4f69
p5696
I187
sV\u86f8
p5697
I4734
sV\u88fc
p5698
I4869
sV\u4ffe
p5699
I241
sV\u3002
p5700
I3
sV\u7504
p5701
I3347
sV\u5987
p5702
I1048
sV\u7f08
p5703
I4073
sV\u7699
p5704
I3463
sV\u591c
p5705
I999
sV\u62a1
p5706
I1855
sV\u8c2a
p5707
I5067
sV\u50ad
p5708
I287
sV\u5cb5
p5709
I1322
sV\u643a
p5710
I2017
sV\u8dbf
p5711
I5188
sV\u5a46
p5712
I1109
sV\u5c4a
p5713
I1279
sV\u65cf
p5714
I2145
sV\u8d54
p5715
I5155
sV\u795c
p5716
I3663
sV\u82e1
p5717
I4439
sV\u70ed
p5718
I3073
sV\u516c
p5719
I331
sV\u5b70
p5720
I1177
sV\u7cf5
p5721
I3941
sV\u66f9
p5722
I2252
sV\u847a
p5723
I4588
sV\u5201
p5724
I401
sV\u8f13
p5725
I5274
sV\u9798
p5726
I5879
sV\u7b1b
p5727
I3793
sV\u549a
p5728
I688
sV\u5e9e
p5729
I1483
sV\u83a0
p5730
I4519
sV\u85a4
p5731
I4659
sV\u8fa8
p5732
I5330
sV\u902d
p5733
I5401
sV\u71ac
p5734
I3108
sV\u552f
p5735
I740
sV\u67b8
p5736
I2341
sV\u69bc
p5737
I2510
sV\u7241
p5738
I3136
sV\u55c4
p5739
I783
sV\u9cca
p5740
I6166
sV\u604d
p5741
I1642
sV\u6a51
p5742
I2542
sV\u88d2
p5743
I4855
sV\u72d6
p5744
I3184
sV\u8763
p5745
I4767
sV\u6cea
p5746
I2743
sV\u7f73
p5747
I4141
sV\u6177
p5748
I1748
sV\u6b7b
p5749
I2598
sV\u5e87
p5750
I1469
sV\u878d
p5751
I4776
sV\u660c
p5752
I2173
sV\u6c10
p5753
I2647
sV\u7199
p5754
I3103
sV\u5018
p5755
I248
sV\u7f9d
p5756
I4157
sV\u5e1c
p5757
I1429
sV\u65a1
p5758
I2120
sV\u63a5
p5759
I1971
sV\u8d26
p5760
I5112
sV\u7f32
p5761
I4111
sV\u5bb5
p5762
I1214
sV\u6536
p5763
I2075
sV\u633a
p5764
I1930
sV\u5742
p5765
I870
sV\u7ec7
p5766
I4019
sV\u62cf
p5767
I1876
sV\u6868
p5768
I2417
sV\u77ed
p5769
I3573
sV\u566c
p5770
I818
sV\u5a74
p5771
I1117
sV\u9003
p5772
I5377
sV\u5305
p5773
I495
sV\u840b
p5774
I4556
sV\u7b8a
p5775
I3837
sV\u618e
p5776
I1751
sV\u7617
p5777
I3435
sV\u539a
p5778
I565
sV\u88a8
p5779
I4844
sV\u542b
p5780
I641
sV\u972d
p5781
I5852
sV\u60b8
p5782
I1689
sV\u54c0
p5783
I704
sV\u7949
p5784
I3652
sV\u58c8
p5785
I975
sV\u6d51
p5786
I2796
sV\u5f5d
p5787
I1545
sV\u67e2
p5788
I2362
sV\u726f
p5789
I3155
sV\u6677
p5790
I2216
sV\u80f8
p5791
I4282
sV\u5f87
p5792
I1567
sV\u9889
p5793
I5929
sV\u7099
p5794
I3045
sV\u62a5
p5795
I1858
sV\u8c26
p5796
I5063
sV\u56ad
p5797
I827
sV\u5cb1
p5798
I1320
sV\u5ab5
p5799
I1130
sV\u623a
p5800
I1799
sV\u8bbf
p5801
I4975
sV\u683e
p5802
I2399
sV\u9540
p5803
I5661
sV\u71c3
p5804
I3111
sV\u65cb
p5805
I2142
sV\u874c
p5806
I4762
sV\u63cf
p5807
I1985
sV\u8d50
p5808
I5152
sV\u9edd
p5809
I6292
sV\u5bdf
p5810
I1236
sV\u82e5
p5811
I4441
sV\u906e
p5812
I5425
sV\u60f9
p5813
I1715
sV\u827a
p5814
I4393
sV\u4f7c
p5815
I190
sV\u887e
p5816
I4829
sV\u5401
p5817
I616
sV\u7682
p5818
I3453
sV\u830f
p5819
I4458
sV\u8913
p5820
I4875
sV\u529a
p5821
I458
sV\u589e
p5822
I966
sV\u77ac
p5823
I3554
sV\u7bb4
p5824
I3857
sV\u8e3d
p5825
I5233
sV\u6fbc
p5826
I2998
sV\u7441
p5827
I3298
sV\u7849
p5828
I3602
sV\u80ce
p5829
I4265
sV\u74d6
p5830
I3331
sV\u8f67
p5831
I5281
sV\u97ec
p5832
I5900
sV\u736f
p5833
I3232
sV\u50ee
p5834
I295
sV\u6777
p5835
I2311
sV\u9185
p5836
I5526
sV\u8f91
p5837
I5317
sV\u6e10
p5838
I2870
sV\u9716
p5839
I5847
sV\u5218
p5840
I414
sV\u892a
p5841
I4881
sV\u90af
p5842
I5450
sV\u732e
p5843
I3217
sV\u6b3e
p5844
I2578
sV\u9640
p5845
I5759
sV\u9044
p5846
I5411
sV\u8e50
p5847
I5242
sV\u8854
p5848
I4813
sV\u54d7
p5849
I715
sV\u5edb
p5850
I1504
sV\u6064
p5851
I1651
sV\u8be9
p5852
I5010
sV\u7ff1
p5853
I4188
sV\u5e70
p5854
I1457
sV\u8776
p5855
I4771
sV\u817a
p5856
I4314
sV\u7f86
p5857
I4149
sV\u5b09
p5858
I1151
sV\u860b
p5859
I4677
sV\u798a
p5860
I3683
sV\u4f11
p5861
I146
sV\u9c9c
p5862
I6150
sV\u5b9e
p5863
I1201
sV\u80a4
p5864
I4247
sV\u7eb0
p5865
I3998
sV\u8339
p5866
I4475
sV\u4e3b
p5867
I41
sV\u8d3d
p5868
I5135
sV\u6cbc
p5869
I2719
sV\u7741
p5870
I3524
sV\u7b49
p5871
I3809
sV\u99ca
p5872
I6028
sV\u5d5d
p5873
I1370
sV\u8263
p5874
I4385
sV\u65e2
p5875
I2154
sV\u706f
p5876
I3030
sV\u53ee
p5877
I605
sV\u5df2
p5878
I1404
sV\u9085
p5879
I5434
sV\u7b08
p5880
I3785
sV\u9616
p5881
I5738
sV\u901a
p5882
I5392
sV\u7c9d
p5883
I3917
sV\u8e26
p5884
I5226
sV\u91af
p5885
I5543
sV\u6636
p5886
I2191
sV\u6a3e
p5887
I2539
sV\u9b48
p5888
I6125
sV\u6bd3
p5889
I2629
sV\u9cdd
p5890
I6172
sV\u7d5c
p5891
I3953
sV\u6760
p5892
I2300
sV\u80e5
p5893
I4274
sV\u5f70
p5894
I1555
sV\u78f5
p5895
I3638
sV\u5974
p5896
I1038
sV\u6cfd
p5897
I2755
sV\u5601
p5898
I797
sV\u5005
p5899
I242
sV\u5a09
p5900
I1094
sV\u810f
p5901
I4290
sV\u4e11
p5902
I15
sV\u7f1b
p5903
I4090
sV\u6323
p5904
I1922
sV\u6d27
p5905
I2770
sV\u4ea6
p5906
I90
sV\u8ba8
p5907
I4954
sV\u9e31
p5908
I6214
sV\u8239
p5909
I4371
sV\u8c3d
p5910
I5077
sV\u51c4
p5911
I375
sV\u7a49
p5912
I3736
sV\u82ce
p5913
I4427
sV\u6e51
p5914
I2893
sV\u4fd0
p5915
I221
sV\u9557
p5916
I5674
sV\u76d6
p5917
I3487
sV\u7ade
p5918
I3771
sV\u8363
p5919
I4497
sV\u64e2
p5920
I2063
sV\u776b
p5921
I3539
sV\u6577
p5922
I2104
sV\u83f8
p5923
I4547
sV\u8dfc
p5924
I5215
sV\u9981
p5925
I6011
sV\u7800
p5926
I3581
sV\u4e8f
p5927
I77
sV\u6614
p5928
I2178
sV\u5c18
p5929
I1258
sV\u9f1a
p5930
I6310
sV\u6fa5
p5931
I2992
sV\u4e24
p5932
I28
sV\u65a9
p5933
I2124
sV\u9eaf
p5934
I6274
sV\u51b1
p5935
I365
sV\u94b3
p5936
I5599
sV\u653e
p5937
I2079
sV\u9e44
p5938
I6224
sV\u5146
p5939
I315
sV\u68cb
p5940
I2442
sV\u574a
p5941
I872
sV\u6ecf
p5942
I2931
sV\u8654
p5943
I4691
sV\u50db
p5944
I291
sV\u8fe5
p5945
I5359
sV\u85e9
p5946
I4673
sV\u6df9
p5947
I2862
sV\u8f7a
p5948
I5297
sV\u63fd
p5949
I1998
sV\u857e
p5950
I4650
sV\u8e0f
p5951
I5219
sV\u6d8e
p5952
I2818
sV\u6392
p5953
I1963
sV\u7a17
p5954
I3724
sV\u5996
p5955
I1053
sV\u701b
p5956
I3017
sV\u761f
p5957
I3437
sV\u84a8
p5958
I4596
sV\u9131
p5959
I5494
sV\u76b4
p5960
I3471
sV\u8d39
p5961
I5131
sV\u6cb8
p5962
I2716
sV\u62bc
p5963
I1864
sV\u7941
p5964
I3649
sV\u9bc2
p5965
I6137
sV\u7f45
p5966
I4119
sV\u54c8
p5967
I709
sV\u8dce
p5968
I5194
sV\u6151
p5969
I1738
sV\u6755
p5970
I2295
sV\u7fda
p5971
I4177
sV\u965f
p5972
I5774
sV\u75de
p5973
I3424
sV\u61e6
p5974
I1768
sV\u5dee
p5975
I1402
sV\u53f2
p5976
I609
sV\u607b
p5977
I1665
sV\u4ffa
p5978
I240
sV\u9881
p5979
I5921
sV\u7f04
p5980
I4069
sV\u9489
p5981
I5579
sV\u4f8f
p5982
I198
sV\u8695
p5983
I4711
sV\u6714
p5984
I2264
sV\u9816
p5985
I5906
sV\u6ea5
p5986
I2916
sV\u4f24
p5987
I156
sV\u8026
p5988
I4210
sV\u64a9
p5989
I2047
sV\u862a
p5990
I4682
sV\u5aad
p5991
I1127
sV\u56b5
p5992
I829
sV\u8bb7
p5993
I4968
sV\u81bb
p5994
I4328
sV\u6e3a
p5995
I2886
sV\u9548
p5996
I5666
sV\u8150
p5997
I4302
sV\u9cd9
p5998
I6170
sV\u51db
p5999
I383
sV\u57df
p6000
I923
sV\u6960
p6001
I2480
sV\u7aed
p6002
I3777
sV\u5170
p6003
I334
sV\u62fd
p6004
I1904
sV\u9d03
p6005
I6179
sV\u5e05
p6006
I1414
sV\u5409
p6007
I621
sV\u8f0f
p6008
I5273
sV\u8513
p6009
I4624
sV\u6292
p6010
I1844
sV\u5e9a
p6011
I1481
sV\u771f
p6012
I3511
sV\u592b
p6013
I1006
sV\u7bac
p6014
I3854
sV\u5f2f
p6015
I1533
sV\u5533
p6016
I742
sV\u9635
p6017
I5754
sV\u6db8
p6018
I2839
sV\u96ca
p6019
I5817
sV\u82d2
p6020
I4430
sV\u6655
p6021
I2202
sV\u5c59
p6022
I1286
sV\u7eda
p6023
I4034
sV\u74de
p6024
I3334
sV\u8d63
p6025
I5166
sV\u8367
p6026
I4501
sV\u60e6
p6027
I1703
sV\u7f6f
p6028
I4139
sV\u8df8
p6029
I5211
sV\u83fc
p6030
I4549
sV\u677f
p6031
I2314
sV\u7a00
p6032
I3719
sV\u6210
p6033
I1780
sV\u6414
p6034
I2007
sV\u5e18
p6035
I1425
sV\u501c
p6036
I251
sV\u971e
p6037
I5849
sV\u6ba1
p6038
I2614
sV\u7f2e
p6039
I4107
sV\u96b3
p6040
I5805
sV\u88b7
p6041
I4849
sV\u84bf
p6042
I4603
sV\u7ec3
p6043
I4015
sV\u5942
p6044
I1017
sV\u9648
p6045
I5765
sV\u884c
p6046
I4809
sV\u4f4e
p6047
I172
sV\u8be1
p6048
I5004
sV\u4ee3
p6049
I126
sV\u6c64
p6050
I2673
sV\u6668
p6051
I2209
sV\u79ed
p6052
I3713
sV\u9172
p6053
I5516
sV\u9e03
p6054
I6196
sV\u5709
p6055
I854
sV\u8c0f
p6056
I5043
sV\u6f8e
p6057
I2989
sV\u579e
p6058
I904
sV\u6e23
p6059
I2877
sV\u6027
p6060
I1631
sV\u86a8
p6061
I4714
sV\u992d
p6062
I5984
sV\u72b0
p6063
I3172
sV\u9535
p6064
I5654
sV\u60bc
p6065
I1690
sV\u5cc4
p6066
I1326
sV\u8fce
p6067
I5345
sV\u6555
p6068
I2088
sV\u9857
p6069
I5910
sV\u77de
p6070
I3566
sV\u6877
p6071
I2421
sV\u9a81
p6072
I6059
sV\u7708
p6073
I3506
sV\u888d
p6074
I4837
sV\u5f18
p6075
I1523
sV\u8822
p6076
I4804
sV\u6ca5
p6077
I2705
sV\u52b1
p6078
I472
sV\u97b3
p6079
I5889
sV\u4eb9
p6080
I101
sV\u663e
p6081
I2193
sV\u5842
p6082
I945
sV\u6bcb
p6083
I2625
sV\u544a
p6084
I657
sV\u4e4e
p6085
I53
sV\u8350
p6086
I4485
sV\u67d3
p6087
I2354
sV\u7f58
p6088
I4126
sV\u53db
p6089
I592
sV\u90dd
p6090
I5471
sV\u715c
p6091
I3089
sV\u55df
p6092
I789
sV\u6b60
p6093
I2589
sV\u86e9
p6094
I4730
sV\u6768
p6095
I2303
sV\u72f1
p6096
I3197
sV\u5370
p6097
I546
sV\u6ef9
p6098
I2949
sV\u8c7a
p6099
I5094
sV\u867e
p6100
I4701
sV\u5a01
p6101
I1087
sV\u5609
p6102
I799
sV\u8713
p6103
I4745
sV\u731b
p6104
I3209
sV\u5c9a
p6105
I1313
sV\u919c
p6106
I5537
sV\u751f
p6107
I3355
sV\u6127
p6108
I1729
sV\u73b0
p6109
I3248
sV\u75b4
p6110
I3408
sV\u803d
p6111
I4217
sV\u5bc0
p6112
I1221
sV\u6251
p6113
I1813
sV\u7ad6
p6114
I3769
sV\u505d
p6115
I270
sV\u955f
p6116
I5679
sV\u62e6
p6117
I1892
sV\u64ea
p6118
I2065
sV\u95f4
p6119
I5707
sV\u6977
p6120
I2486
sV\u8ff8
p6121
I5371
sV\u637b
p6122
I1955
sV\u81fc
p6123
I4340
sV\u5883
p6124
I960
sV\u9189
p6125
I5529
sV\u8f8d
p6126
I5313
sV\u6e0c
p6127
I2867
sV\u911e
p6128
I5488
sV\u6da1
p6129
I2827
sV\u61a9
p6130
I1757
sV\u9cab
p6131
I6155
sV\u5fad
p6132
I1584
sV\u84bb
p6133
I4602
sV\u6b3a
p6134
I2576
sV\u5546
p6135
I750
sV\u534a
p6136
I522
sV\u8450
p6137
I4575
sV\u6c60
p6138
I2671
sV\u8be5
p6139
I5008
sV\u6068
p6140
I1652
sV\u996e
p6141
I5997
sV\u8d76
p6142
I5175
sV\u67fd
p6143
I2373
sV\u817e
p6144
I4316
sV\u9607
p6145
I5725
sV\u7586
p6146
I3396
sV\u8c0b
p6147
I5039
sV\u4f0d
p6148
I142
sV\u7e17
p6149
I3966
sV\u9898
p6150
I5939
sV\u741b
p6151
I3281
sV\u5b9a
p6152
I1197
sV\u969c
p6153
I5798
sV\u6627
p6154
I2184
sV\u7eac
p6155
I3994
sV\u9531
p6156
I5653
sV\u5ac4
p6157
I1135
sV\u93ca
p6158
I5569
sV\u6f4d
p6159
I2972
sV\u89ce
p6160
I4913
sV\u6551
p6161
I2086
sV\u87d2
p6162
I4792
sV\u6355
p6163
I1941
sV\u9e57
p6164
I6237
sV\u7bda
p6165
I3868
sV\u575d
p6166
I880
sV\u8863
p6167
I4818
sV\u65e6
p6168
I2156
sV\u63ea
p6169
I1993
sV\u59ee
p6170
I1083
sV\u94f0
p6171
I5626
sV\u88f8
p6172
I4867
sV\u627f
p6173
I1836
sV\u9c81
p6174
I6141
sV\u5983
p6175
I1045
sV\u9a85
p6176
I6062
sV\u7b04
p6177
I3784
sV\u8e8d
p6178
I5260
sV\u571c
p6179
I856
sV\u901e
p6180
I5394
sV\u6ca1
p6181
I2702
sV\u8e22
p6182
I5224
sV\u6aa5
p6183
I2558
sV\u8426
p6184
I4566
sV\u822a
p6185
I4359
sV\u5ead
p6186
I1489
sV\u54b1
p6187
I697
sV\u79c3
p6188
I3698
sV\u5e42
p6189
I1445
sV\u9b44
p6190
I6122
sV\u5446
p6191
I655
sV\u6dcb
p6192
I2846
sV\u524a
p6193
I437
sV\u6bcf
p6194
I2627
sV\u8354
p6195
I4488
sV\u5fd7
p6196
I1600
sV\u98d9
p6197
I5966
sV\u53df
p6198
I593
sV\u6b64
p6199
I2592
sV\u6168
p6200
I1744
sV\u7eed
p6201
I4050
sV\u5f6c
p6202
I1552
sV\u9672
p6203
I5783
sV\u72f5
p6204
I3199
sV\u5374
p6205
I549
sV\u68f9
p6206
I2458
sV\u5c01
p6207
I1249
sV\u7e82
p6208
I3978
sV\u5a05
p6209
I1090
sV\u9707
p6210
I5841
sV\u7486
p6211
I3316
sV\u728a
p6212
I3166
sV\u4e0d
p6213
I12
sV\u7f17
p6214
I4086
sV\u5c96
p6215
I1310
sV\u5a9a
p6216
I1124
sV\u4ea2
p6217
I87
sV\u8ba4
p6218
I4951
sV\u9e2d
p6219
I6210
sV\u5133
p6220
I308
sV\u8839
p6221
I4806
sV\u69b8
p6222
I2508
sV\u7c41
p6223
I3902
sV\u5bc4
p6224
I1223
sV\u6e4d
p6225
I2891
sV\u7cd6
p6226
I3936
sV\u955b
p6227
I5675
sV\u6ee2
p6228
I2941
sV\u64e6
p6229
I2064
sV\u58ee
p6230
I983
sV\u95f0
p6231
I5703
sV\u657b
p6232
I2105
sV\u9f81
p6233
I6323
sV\u9985
p6234
I6012
sV\u4e8b
p6235
I74
sV\u5a18
p6236
I1097
sV\u6fa1
p6237
I2991
sV\u8d22
p6238
I5108
sV\u63a9
p6239
I1974
sV\u7b2e
p6240
I3802
sV\u7532
p6241
I3366
sV\u51b5
p6242
I368
sV\u80bf
p6243
I4259
sV\u5d42
p6244
I1362
sV\u6ecb
p6245
I2929
sV\u8c4c
p6246
I5082
sV\u8650
p6247
I4689
sV\u62d3
p6248
I1879
sV\u8054
p6249
I4226
sV\u56db
p6250
I834
sV\u745c
p6251
I3306
sV\u89e5
p6252
I4922
sV\u6864
p6253
I2413
sV\u83e9
p6254
I4543
sV\u9b6e
p6255
I6133
sV\u77f1
p6256
I3576
sV\u5670
p6257
I820
sV\u8f76
p6258
I5294
sV\u5f01
p6259
I1512
sV\u7786
p6260
I3544
sV\u718a
p6261
I3100
sV\u6592
p6262
I2112
sV\u9a98
p6263
I6077
sV\u949c
p6264
I5587
sV\u88a4
p6265
I4843
sV\u5233
p6266
I427
sV\u853d
p6267
I4636
sV\u64bc
p6268
I2053
sV\u91ca
p6269
I5553
sV\u6d4d
p6270
I2792
sV\u6751
p6271
I2293
sV\u6155
p6272
I1739
sV\u5b59
p6273
I1165
sV\u965b
p6274
I5773
sV\u73de
p6275
I3263
sV\u5bee
p6276
I1241
sV\u90f4
p6277
I5481
sV\u4ff6
p6278
I238
sV\u667b
p6279
I2219
sV\u84fc
p6280
I4619
sV\u7f00
p6281
I4065
sV\u5b83
p6282
I1183
sV\u9885
p6283
I5925
sV\u5587
p6284
I767
sV\u4f8b
p6285
I196
sV\u6710
p6286
I2262
sV\u6114
p6287
I1723
sV\u4f20
p6288
I155
sV\u8c22
p6289
I5059
sV\u5cad
p6290
I1319
sV\u56b1
p6291
I828
sV\u683a
p6292
I2396
sV\u623e
p6293
I1801
sV\u5c42
p6294
I1275
sV\u75c7
p6295
I3415
sV\u8d4c
p6296
I5148
sV\u8154
p6297
I4306
sV\u755c
p6298
I3383
sV\u5d6c
p6299
I1374
sV\u9a6e
p6300
I6041
sV\u76f1
p6301
I3497
sV\u5770
p6302
I891
sV\u5174
p6303
I337
sV\u8e76
p6304
I5255
sV\u827e
p6305
I4394
sV\u5e01
p6306
I1411
sV\u9b03
p6307
I6109
sV\u7686
p6308
I3455
sV\u708a
p6309
I3040
sV\u6492
p6310
I2040
sV\u5e96
p6311
I1478
sV\u529e
p6312
I461
sV\u6b23
p6313
I2568
sV\u592f
p6314
I1009
sV\u9631
p6315
I5750
sV\u77b0
p6316
I3555
sV\u9035
p6317
I5403
sV\u843d
p6318
I4573
sV\u65bc
p6319
I2131
sV\u7e41
p6320
I3970
sV\u7845
p6321
I3601
sV\u96c6
p6322
I5815
sV\u53c8
p6323
I580
sV\u90ca
p6324
I5463
sV\u6c4d
p6325
I2663
sV\u6055
p6326
I1646
sV\u7ed6
p6327
I4031
sV\u72de
p6328
I3188
sV\u4e61
p6329
I64
sV\u6ce2
p6330
I2739
sV\u66e6
p6331
I2243
sV\u796f
p6332
I3673
sV\u54f2
p6333
I725
sV\u6d77
p6334
I2810
sV\u4ef6
p6335
I134
sV\u8bf8
p6336
I5023
s.