(dp0
V\u8000
p1
I2
sV\u6d89
p2
I2
sV\u8c08
p3
I1
sV\u4f0a
p4
I1
sV\u8599
p5
I2
sV\u4e9f
p6
I1
sV\u6d1e
p7
I2
sV\u7322
p8
I1
sV\u60ab
p9
I2
sV\u7f2a
p10
I1
sV\u6cb3
p11
I1
sV\u4e34
p12
I1
sV\u72b7
p13
I2
sV\u5438
p14
I1
sV\u5a3c
p15
I1
sV\u7ebf
p16
I2
sV\u53cd
p17
I2
sV\u724c
p18
I1
sV\u96cf
p19
I1
sV\u59d1
p20
I1
sV\u65d9
p21
I1
sV\u5362
p22
I1
sV\u77e5
p23
I1
sV\u9664
p24
I1
sV\u5f6a
p25
I1
sV\u89f1
p26
I2
sV\u52f7
p27
I1
sV\u95f9
p28
I2
sV\u777a
p29
I1
sV\u5eff
p30
I2
sV\u8986
p31
I2
sV\u8f8a
p32
I2
sV\u5890
p33
I2
sV\u5e94
p34
I1
sV\u8e1f
p35
I1
sV\u5121
p36
I2
sV\u76a4
p37
I1
sV\u5d29
p38
I1
sV\u82ac
p39
I1
sV\u51b6
p40
I2
sV\u9abc
p41
I1
sV\u8d49
p42
I2
sV\u6e5f
p43
I1
sV\u56e4
p44
I2
sV\u5ce8
p45
I1
sV\u62ec
p46
I2
sV\u8c73
p47
I1
sV\u6ef4
p48
I1
sV\u987b
p49
I1
sV\u5b7d
p50
I2
sV\u9e7f
p51
I2
sV\u6c89
p52
I1
sV\u4e0a
p53
I2
sV\u540e
p54
I2
sV\u7891
p55
I1
sV\u9910
p56
I1
sV\u6016
p57
I2
sV\u8499
p58
I1
sV\u67af
p59
I1
sV\u4f34
p60
I2
sV\u73b7
p61
I2
sV\u9036
p62
I1
sV\u79bb
p63
I1
sV\u7fbf
p64
I2
sV\u52cd
p65
I1
sV\u58d1
p66
I2
sV\u7950
p67
I2
sV\u7f54
p68
I2
sV\u76e5
p69
I2
sV\u5e6a
p70
I1
sV\u88f1
p71
I2
sV\u53f7
p72
I2
sV\u7076
p73
I2
sV\u59fb
p74
I1
sV\u5fff
p75
I2
sV\u8282
p76
I1
sV\u538c
p77
I2
sV\u770f
p78
I1
sV\u948e
p79
I1
sV\u8317
p80
I1
sV\u891b
p81
I2
sV\u5021
p82
I2
sV\u71a0
p83
I2
sV\u9523
p84
I1
sV\u7a3d
p85
I1
sV\u62c2
p86
I1
sV\u8c49
p87
I2
sV\u514b
p88
I2
sV\u574f
p89
I2
sV\u9e55
p90
I1
sV\u80d6
p91
I2
sV\u86da
p92
I2
sV\u51e0
p93
I2
sV\u5de8
p94
I2
sV\u876f
p95
I1
sV\u9f7f
p96
I2
sV\u8200
p97
I2
sV\u6585
p98
I2
sV\u8404
p99
I1
sV\u6316
p100
I1
sV\u56a3
p101
I1
sV\u7b26
p102
I1
sV\u62ab
p103
I1
sV\u872e
p104
I2
sV\u6eb3
p105
I1
sV\u70b7
p106
I2
sV\u953a
p107
I1
sV\u6240
p108
I2
sV\u6444
p109
I2
sV\u92cb
p110
I1
sV\u704c
p111
I2
sV\u94cf
p112
I1
sV\u67d9
p113
I1
sV\u4f5e
p114
I2
sV\u5162
p115
I1
sV\u5b66
p116
I1
sV\u7fe9
p117
I1
sV\u81ed
p118
I2
sV\u8bf1
p119
I2
sV\u4ef3
p120
I2
sV\u8df5
p121
I2
sV\u757a
p122
I1
sV\u7f7e
p123
I1
sV\u6603
p124
I2
sV\u6807
p125
I1
sV\u4e88
p126
I2
sV\u8d8a
p127
I2
sV\u740f
p128
I2
sV\u9992
p129
I1
sV\u5c94
p130
I2
sV\u8017
p131
I2
sV\u6698
p132
I1
sV\u8c1f
p133
I1
sV\u5321
p134
I1
sV\u5f29
p135
I2
sV\u7ea8
p136
I1
sV\u6d35
p137
I1
sV\u61c2
p138
I2
sV\u524b
p139
I2
sV\u914d
p140
I2
sV\u9b51
p141
I1
sV\u79d2
p142
I2
sV\u9d55
p143
I2
sV\u83d6
p144
I1
sV\u6a5b
p145
I1
sV\u6c5f
p146
I1
sV\u8fde
p147
I1
sV\u5ee8
p148
I2
sV\u60ec
p149
I2
sV\u76f8
p150
I1
sV\u9a7b
p151
I2
sV\u597d
p152
I2
sV\u8300
p153
I1
sV\u6485
p154
I1
sV\u6e89
p155
I2
sV\u8f08
p156
I1
sV\u560e
p157
I1
sV\u7a91
p158
I1
sV\u9b10
p159
I1
sV\u7c95
p160
I2
sV\u6216
p161
I2
sV\u57a3
p162
I1
sV\u94a5
p163
I2
sV\u7c2a
p164
I1
sV\u65af
p165
I1
sV\u6fb3
p166
I2
sV\u8832
p167
I1
sV\u9e3e
p168
I1
sV\u89c7
p169
I1
sV\u4ec9
p170
I2
sV\u6f48
p171
I1
sV\u714c
p172
I1
sV\u7b50
p173
I1
sV\u66d9
p174
I2
sV\u895c
p175
I1
sV\u4e5e
p176
I2
sV\u72e1
p177
I2
sV\u7ee9
p178
I1
sV\u80ed
p179
I1
sV\u666e
p180
I2
sV\u4ff3
p181
I1
sV\u96f9
p182
I1
sV\u5bfb
p183
I1
sV\u6907
p184
I2
sV\u4f88
p185
I2
sV\u8c8a
p186
I2
sV\u518c
p187
I2
sV\u7f13
p188
I2
sV\u699c
p189
I2
sV\u8d1f
p190
I2
sV\u73a0
p191
I2
sV\u9927
p192
I2
sV\u6a31
p193
I1
sV\u8bb0
p194
I2
sV\u5ebe
p195
I2
sV\u8e49
p196
I1
sV\u6cca
p197
I1
sV\u904d
p198
I2
sV\u76ce
p199
I2
sV\u5f53
p200
I1
sV\u6157
p201
I2
sV\u53e0
p202
I1
sV\u7763
p203
I1
sV\u90e2
p204
I2
sV\u55e4
p205
I1
sV\u7967
p206
I1
sV\u9ae6
p207
I1
sV\u836b
p208
I1
sV\u8f73
p209
I1
sV\u9177
p210
I2
sV\u6581
p211
I2
sV\u8204
p212
I2
sV\u6989
p213
I2
sV\u7b95
p214
I1
sV\u631a
p215
I2
sV\u5ea7
p216
I2
sV\u68b3
p217
I1
sV\u5e3c
p218
I1
sV\u7abf
p219
I1
sV\u80c3
p220
I2
sV\u6848
p221
I2
sV\u5dd1
p222
I1
sV\u98d3
p223
I2
sV\u8058
p224
I2
sV\u73e5
p225
I2
sV\u9264
p226
I1
sV\u5d66
p227
I2
sV\u79e9
p228
I2
sV\u5b6a
p229
I1
sV\u8bf5
p230
I2
sV\u56f7
p231
I1
sV\u5cfb
p232
I2
sV\u8782
p233
I1
sV\u5c90
p234
I1
sV\u8c1b
p235
I2
sV\u6e9c
p236
I1
sV\u74a0
p237
I1
sV\u5929
p238
I1
sV\u672d
p239
I1
sV\u86ac
p240
I2
sV\u6d31
p241
I2
sV\u4fb2
p242
I2
sV\u90b8
p243
I2
sV\u59be
p244
I2
sV\u8345
p245
I1
sV\u4e47
p246
I1
sV\u6dc6
p247
I1
sV\u71ce
p248
I1
sV\u6c5b
p249
I2
sV\u89de
p250
I1
sV\u52e4
p251
I1
sV\u846b
p252
I1
sV\u826f
p253
I1
sV\u6cf0
p254
I2
sV\u9677
p255
I2
sV\u5179
p256
I1
sV\u7efc
p257
I1
sV\u9a7f
p258
I2
sV\u8500
p259
I2
sV\u8304
p260
I1
sV\u5e12
p261
I2
sV\u7a95
p262
I2
sV\u621a
p263
I1
sV\u7622
p264
I1
sV\u7c26
p265
I1
sV\u65ab
p266
I1
sV\u77b7
p267
I2
sV\u5f3c
p268
I2
sV\u8fc7
p269
I2
sV\u7b54
p270
I1
sV\u9560
p271
I1
sV\u5c66
p272
I2
sV\u5a6a
p273
I1
sV\u6e72
p274
I1
sV\u7476
p275
I1
sV\u727a
p276
I1
sV\u9efd
p277
I2
sV\u5bff
p278
I2
sV\u787e
p279
I2
sV\u8682
p280
I2
sV\u578c
p281
I2
sV\u9e92
p282
I1
sV\u8717
p283
I1
sV\u4e1d
p284
I1
sV\u6f9c
p285
I1
sV\u75a0
p286
I2
sV\u9123
p287
I1
sV\u662d
p288
I1
sV\u87ac
p289
I1
sV\u4eb2
p290
I1
sV\u6a35
p291
I1
sV\u8bb4
p292
I1
sV\u7039
p293
I2
sV\u964d
p294
I2
sV\u534f
p295
I1
sV\u7ed2
p296
I1
sV\u53e4
p297
I2
sV\u9ce6
p298
I2
sV\u59e8
p299
I1
sV\u67ec
p300
I2
sV\u836f
p301
I2
sV\u6df0
p302
I2
sV\u5e7d
p303
I1
sV\u7ffc
p304
I2
sV\u6781
p305
I1
sV\u8004
p306
I2
sV\u6b89
p307
I2
sV\u7f91
p308
I2
sV\u9e10
p309
I1
sV\u5d12
p310
I1
sV\u4e9b
p311
I1
sV\u611a
p312
I1
sV\u52a3
p313
I2
sV\u5ca7
p314
I1
sV\u7f26
p315
I2
sV\u60af
p316
I2
sV\u4e30
p317
I1
sV\u8d32
p318
I1
sV\u5238
p319
I2
sV\u7ebb
p320
I2
sV\u5c3c
p321
I1
sV\u90cf
p322
I1
sV\u7e50
p323
I2
sV\u9ad3
p324
I2
sV\u8258
p325
I1
sV\u6ddd
p326
I1
sV\u71e5
p327
I2
sV\u5f66
p328
I2
sV\u636e
p329
I2
sV\u7b7e
p330
I1
sV\u8f86
p331
I2
sV\u548c
p332
I1
sV\u5e90
p333
I1
sV\u9d92
p334
I2
sV\u6298
p335
I1
sV\u6f31
p336
I2
sV\u88b4
p337
I2
sV\u5bbe
p338
I1
sV\u65c2
p339
I1
sV\u6fc6
p340
I1
sV\u69ca
p341
I2
sV\u954d
p342
I2
sV\u504f
p343
I1
sV\u9f51
p344
I1
sV\u5a53
p345
I1
sV\u9955
p346
I1
sV\u6e5b
p347
I2
sV\u8bde
p348
I2
sV\u56e0
p349
I1
sV\u866b
p350
I1
sV\u72f8
p351
I1
sV\u987f
p352
I2
sV\u8700
p353
I2
sV\u520e
p354
I2
sV\u7e91
p355
I1
sV\u9f10
p356
I2
sV\u9914
p357
I2
sV\u8299
p358
I1
sV\u4f9b
p359
I1
sV\u7422
p360
I1
sV\u67ab
p361
I1
sV\u4f30
p362
I1
sV\u6bb3
p363
I1
sV\u8c32
p364
I1
sV\u9636
p365
I1
sV\u6740
p366
I1
sV\u6144
p367
I2
sV\u6b48
p368
I1
sV\u54cd
p369
I2
sV\u754c
p370
I2
sV\u91cf
p371
I2
sV\u7f50
p372
I2
sV\u58d5
p373
I1
sV\u7954
p374
I2
sV\u62d9
p375
I1
sV\u6cdd
p376
I2
sV\u9760
p377
I2
sV\u5462
p378
I1
sV\u9164
p379
I1
sV\u626e
p380
I2
sV\u6c72
p381
I1
sV\u55f7
p382
I1
sV\u5ffb
p383
I1
sV\u707a
p384
I2
sV\u59ff
p385
I1
sS'<unk>'
p386
I0
sV\u8482
p387
I2
sV\u770b
p388
I2
sV\u5f90
p389
I1
sV\u8517
p390
I2
sV\u6398
p391
I1
sV\u5a29
p392
I2
sV\u7ba8
p393
I2
sV\u642d
p394
I1
sV\u8fb0
p395
I1
sV\u7239
p396
I1
sV\u5abe
p397
I2
sV\u64c2
p398
I1
sV\u72ce
p399
I1
sV\u9e51
p400
I1
sV\u80da
p401
I1
sV\u57e0
p402
I2
sV\u94e2
p403
I1
sV\u51e4
p404
I2
sV\u9ee6
p405
I2
sV\u5be8
p406
I2
sV\u65ec
p407
I1
sV\u4e71
p408
I2
sV\u997f
p409
I2
sV\u7b8d
p410
I1
sV\u5d0e
p411
I1
sV\u9010
p412
I1
sV\u9614
p413
I2
sV\u5ca3
p414
I2
sV\u7126
p415
I1
sV\u6eaf
p416
I2
sV\u8d2e
p417
I2
sV\u5c38
p418
I1
sV\u76bf
p419
I2
sV\u6840
p420
I1
sV\u6e44
p421
I1
sV\u82c7
p422
I2
sV\u6448
p423
I2
sV\u98cb
p424
I2
sV\u9ecf
p425
I1
sV\u51d1
p426
I2
sV\u94d3
p427
I1
sV\u57d5
p428
I1
sV\u6dd9
p429
I1
sV\u4f5a
p430
I2
sV\u7fe5
p431
I2
sV\u9e64
p432
I2
sV\u576a
p433
I1
sV\u8bed
p434
I2
sV\u6d6e
p435
I1
sV\u6372
p436
I2
sV\u50fb
p437
I2
sV\u56ff
p438
I2
sV\u6c03
p439
I1
sV\u5f25
p440
I1
sV\u7ea4
p441
I1
sV\u74a8
p442
I2
sV\u6735
p443
I2
sV\u9cb8
p444
I1
sV\u8941
p445
I2
sV\u6bc2
p446
I2
sV\u8549
p447
I1
sV\u9b4d
p448
I2
sV\u5453
p449
I2
sV\u7267
p450
I2
sV\u54e8
p451
I2
sV\u886b
p452
I1
sV\u8e6f
p453
I1
sV\u60f0
p454
I2
sV\u8473
p455
I1
sV\u66f4
p456
I2
sV\u9a77
p457
I2
sV\u72fc
p458
I1
sV\u6881
p459
I1
sV\u6e85
p460
I2
sV\u7a8d
p461
I2
sV\u5212
p462
I2
sV\u6816
p463
I1
sV\u8c99
p464
I1
sV\u6e1a
p465
I2
sV\u829d
p466
I1
sV\u641e
p467
I2
sV\u98a1
p468
I2
sV\u94a9
p469
I1
sV\u8c2e
p470
I2
sV\u8232
p471
I1
sV\u533c
p472
I1
sV\u77bf
p473
I1
sV\u8dc3
p474
I2
sV\u4ec5
p475
I2
sV\u83c7
p476
I1
sV\u6548
p477
I2
sV\u7b4c
p478
I1
sV\u8d58
p479
I2
sV\u835c
p480
I2
sV\u5a62
p481
I2
sV\u7ee5
p482
I1
sV\u566a
p483
I2
sV\u4fef
p484
I2
sV\u80f1
p485
I1
sV\u51fb
p486
I1
sV\u747e
p487
I2
sV\u4f84
p488
I1
sV\u6307
p489
I2
sV\u8086
p490
I2
sV\u868a
p491
I1
sV\u5b8c
p492
I1
sV\u7f0f
p493
I2
sV\u7513
p494
I2
sV\u6d98
p495
I2
sV\u5821
p496
I2
sV\u7fa4
p497
I1
sV\u5429
p498
I1
sV\u8bac
p499
I1
sV\u6635
p500
I2
sV\u723d
p501
I2
sV\u6ac2
p502
I2
sV\u60c6
p503
I1
sV\u594b
p504
I2
sV\u9051
p505
I1
sV\u72d2
p506
I2
sV\u9655
p507
I2
sV\u675f
p508
I2
sV\u7d63
p509
I1
sV\u5fe4
p510
I2
sV\u90e6
p511
I2
sV\u896b
p512
I2
sV\u96ea
p513
I2
sV\u8f6f
p514
I2
sV\u67f4
p515
I1
sV\u5c79
p516
I2
sV\u527d
p517
I1
sV\u6b81
p518
I2
sV\u8a00
p519
I1
sV\u6d85
p520
I2
sV\u8c04
p521
I2
sV\u6789
p522
I2
sV\u7391
p523
I1
sV\u5112
p524
I1
sV\u8f99
p525
I1
sV\u819d
p526
I1
sV\u752a
p527
I2
sV\u5e38
p528
I1
sV\u503c
p529
I1
sV\u74bf
p530
I1
sV\u973e
p531
I1
sV\u8ec3
p532
I2
sV\u9ccf
p533
I1
sV\u53d1
p534
I1
sV\u7be1
p535
I2
sV\u5962
p536
I1
sV\u5366
p537
I2
sV\u77e9
p538
I2
sV\u9668
p539
I2
sV\u6f6e
p540
I1
sV\u83f1
p541
I1
sV\u54ff
p542
I2
sV\u8386
p543
I1
sV\u7a0b
p544
I1
sV\u7c0f
p545
I2
sV\u9192
p546
I2
sV\u4f19
p547
I2
sV\u6e98
p548
I2
sV\u821b
p549
I2
sV\u7aa0
p550
I1
sV\u9e23
p551
I1
sV\u7ca4
p552
I2
sV\u4fae
p553
I2
sV\u82b0
p554
I2
sV\u5bb6
p555
I1
sV\u9eb8
p556
I1
sV\u8b41
p557
I1
sV\u4e43
p558
I2
sV\u8d45
p559
I1
sV\u63c6
p560
I1
sV\u8749
p561
I1
sV\u65ca
p562
I2
sV\u5c4f
p563
I1
sV\u7fce
p564
I1
sV\u9555
p565
I1
sV\u4ed8
p566
I2
sV\u625b
p567
I1
sV\u8dda
p568
I1
sV\u5ae0
p569
I1
sV\u5ce4
p570
I2
sV\u93e6
p571
I1
sV\u95ea
p572
I2
sV\u9877
p573
I2
sV\u5f79
p574
I2
sV\u7ef8
p575
I1
sV\u517d
p576
I2
sV\u6c85
p577
I1
sV\u788d
p578
I2
sV\u5012
p579
I2
sV\u809d
p580
I1
sV\u9aa1
p581
I1
sV\u96a9
p582
I2
sV\u742a
p583
I1
sV\u6daf
p584
I1
sV\u67b3
p585
I2
sV\u5f38
p586
I1
sV\u73bb
p587
I1
sV\u6b40
p588
I2
sV\u6748
p589
I1
sV\u794c
p590
I2
sV\u7350
p591
I1
sV\u54d5
p592
I2
sV\u7554
p593
I2
sV\u8f58
p594
I1
sV\u6e6e
p595
I1
sV\u82f1
p596
I1
sV\u7a76
p597
I1
sV\u90fd
p598
I1
sV\u767e
p599
I2
sV\u8882
p600
I2
sV\u7b0b
p601
I2
sV\u5390
p602
I1
sV\u5594
p603
I1
sV\u4e19
p604
I2
sV\u851f
p605
I2
sV\u4eae
p606
I2
sV\u6435
p607
I2
sV\u68c2
p608
I1
sV\u62c6
p609
I1
sV\u7ece
p610
I2
sV\u4fd8
p611
I1
sV\u7167
p612
I2
sV\u94ea
p613
I1
sV\u9977
p614
I2
sV\u957f
p615
I2
sV\u8c00
p616
I1
sV\u7591
p617
I1
sV\u7395
p618
I1
sV\u7526
p619
I1
sV\u6cab
p620
I2
sV\u732a
p621
I1
sV\u7eb7
p622
I1
sV\u6c40
p623
I1
sV\u6a44
p624
I2
sV\u86c7
p625
I1
sV\u5fcd
p626
I2
sV\u90d3
p627
I2
sV\u67dd
p628
I2
sV\u5f62
p629
I1
sV\u7be5
p630
I2
sV\u5566
p631
I1
sV\u9068
p632
I1
sV\u8fed
p633
I1
sV\u696e
p634
I2
sV\u6772
p635
I2
sV\u5ef7
p636
I1
sV\u52ff
p637
I2
sV\u8f82
p638
I2
sV\u7c0b
p639
I2
sV\u5490
p640
I2
sV\u821f
p641
I1
sV\u5d21
p642
I1
sV\u6f2d
p643
I2
sV\u8eac
p644
I1
sV\u96bc
p645
I2
sV\u8d41
p646
I2
sV\u6fc2
p647
I1
sV\u65c6
p648
I2
sV\u5c4b
p649
I1
sV\u645b
p650
I1
sV\u8bda
p651
I1
sV\u8c6b
p652
I2
sV\u62f4
p653
I1
sV\u5979
p654
I1
sV\u76fc
p655
I2
sV\u6c81
p656
I2
sV\u6089
p657
I1
sV\u7e8d
p658
I1
sV\u9510
p659
I2
sV\u5612
p660
I2
sV\u59a3
p661
I2
sV\u7e22
p662
I1
sV\u9aa5
p663
I2
sV\u7426
p664
I1
sV\u722a
p665
I2
sV\u5938
p666
I1
sV\u903e
p667
I1
sV\u6148
p668
I1
sV\u54d1
p669
I2
sV\u68d9
p670
I2
sV\u66dd
p671
I2
sV\u5e62
p672
I1
sV\u7ae5
p673
I1
sV\u5466
p674
I1
sV\u526a
p675
I2
sV\u7a7a
p676
I1
sV\u707e
p677
I1
sV\u828a
p678
I1
sV\u5f8c
p679
I2
sV\u7b0f
p680
I2
sV\u988e
p681
I2
sV\u8f17
p682
I1
sV\u679c
p683
I2
sV\u5a25
p684
I1
sV\u5029
p685
I2
sV\u71a8
p686
I2
sV\u6e2d
p687
I2
sV\u85b0
p688
I1
sV\u8c41
p689
I1
sV\u6ec2
p690
I1
sV\u5d4b
p691
I1
sV\u62ca
p692
I2
sV\u9e4d
p693
I1
sV\u9451
p694
I2
sV\u76d2
p695
I1
sV\u655b
p696
I2
sV\u635f
p697
I2
sV\u80de
p698
I1
sV\u5be4
p699
I2
sV\u94e6
p700
I1
sV\u8d6b
p701
I2
sV\u6fec
p702
I2
sV\u65f0
p703
I2
sV\u63f4
p704
I1
sV\u567d
p705
I2
sV\u6389
p706
I2
sV\u7d8d
p707
I1
sV\u7791
p708
I1
sV\u9610
p709
I2
sV\u9014
p710
I1
sV\u8b99
p711
I1
sV\u859d
p712
I1
sV\u631e
p713
I2
sV\u7d22
p714
I2
sV\u99a5
p715
I2
sV\u7726
p716
I2
sV\u68af
p717
I1
sV\u543c
p718
I2
sV\u6844
p719
I1
sV\u6248
p720
I2
sV\u5dcd
p721
I1
sV\u98cf
p722
I1
sV\u7f0c
p723
I1
sV\u6bd9
p724
I2
sV\u7fe1
p725
I2
sV\u5766
p726
I2
sV\u73e9
p727
I1
sV\u6572
p728
I1
sV\u797a
p729
I1
sV\u95fd
p730
I2
sV\u4e80
p731
I1
sV\u818a
p732
I1
sV\u5c8c
p733
I1
sV\u8c17
p734
I1
sV\u7ea0
p735
I1
sV\u9a23
p736
I1
sV\u5925
p737
I2
sV\u6731
p738
I1
sV\u80b4
p739
I1
sV\u9ab8
p740
I1
sV\u8349
p741
I2
sV\u61ca
p742
I2
sV\u9751
p743
I1
sV\u75d2
p744
I2
sV\u6c57
p745
I2
sV\u89da
p746
I1
sV\u58e4
p747
I2
sV\u97e6
p748
I1
sV\u6cec
p749
I1
sV\u66f0
p750
I1
sV\u8273
p751
I2
sV\u907f
p752
I2
sV\u8f00
p753
I1
sV\u6885
p754
I1
sV\u6289
p755
I1
sV\u7691
p756
I1
sV\u5412
p757
I1
sV\u7095
p758
I2
sV\u5ba3
p759
I1
sV\u55a7
p760
I1
sV\u7626
p761
I2
sV\u9e36
p762
I1
sV\u77bb
p763
I1
sV\u553c
p764
I2
sV\u4ec1
p765
I1
sV\u8bc3
p766
I1
sV\u99cf
p767
I2
sV\u7750
p768
I2
sV\u4e56
p769
I1
sV\u7ee1
p770
I1
sV\u9964
p771
I2
sV\u72e9
p772
I2
sV\u86f1
p773
I1
sV\u5df7
p774
I2
sV\u9af9
p775
I1
sV\u51ff
p776
I1
sV\u6b03
p777
I1
sV\u8c82
p778
I1
sV\u7f0b
p779
I2
sV\u9a8e
p780
I1
sV\u659c
p781
I1
sV\u5e21
p782
I1
sV\u9b23
p783
I2
sV\u5229
p784
I2
sV\u81b4
p785
I1
sV\u5eb6
p786
I2
sV\u52be
p787
I1
sV\u8e41
p788
I1
sV\u8845
p789
I2
sV\u8249
p790
I2
sV\u60ca
p791
I1
sV\u594f
p792
I2
sV\u5353
p793
I1
sV\u74d2
p794
I2
sV\u82de
p795
I1
sV\u5fe0
p796
I1
sV\u53e8
p797
I1
sV\u8f6b
p798
I2
sV\u6dec
p799
I2
sV\u67f0
p800
I2
sV\u9d77
p801
I1
sV\u7bf8
p802
I2
sV\u547d
p803
I2
sV\u75fc
p804
I2
sV\u917f
p805
I2
sV\u7181
p806
I1
sV\u9000
p807
I2
sV\u5f0a
p808
I2
sV\u820c
p809
I1
sV\u5e9f
p810
I2
sV\u70ab
p811
I2
sV\u6f2a
p812
I1
sV\u522c
p813
I2
sV\u952e
p814
I2
sV\u5830
p815
I2
sV\u7cb3
p816
I1
sV\u9b32
p817
I1
sV\u873a
p818
I1
sV\u8d3e
p819
I2
sV\u94c3
p820
I1
sV\u5dc9
p821
I1
sV\u6850
p822
I1
sV\u6e54
p823
I1
sV\u5156
p824
I2
sV\u575a
p825
I1
sV\u7bdd
p826
I1
sV\u67e5
p827
I1
sV\u7b72
p828
I1
sV\u8bfd
p829
I2
sV\u4eff
p830
I2
sV\u5080
p831
I1
sV\u7403
p832
I1
sV\u9986
p833
I2
sV\u5c88
p834
I1
sV\u9f8a
p835
I2
sV\u660f
p836
I1
sV\u6c13
p837
I1
sV\u4e94
p838
I2
sV\u7498
p839
I1
sV\u5b1d
p840
I2
sV\u7a9c
p841
I2
sV\u9e1f
p842
I2
sV\u60a0
p843
I1
sV\u6ca8
p844
I1
sV\u7f35
p845
I2
sV\u9eb4
p846
I1
sV\u6539
p847
I2
sV\u84b8
p848
I1
sV\u73c2
p849
I1
sV\u7fca
p850
I2
sV\u65ce
p851
I2
sV\u6bd2
p852
I1
sV\u7257
p853
I2
sV\u89e6
p854
I2
sV\u8fea
p855
I1
sV\u72ec
p856
I1
sV\u7ef4
p857
I1
sV\u9704
p858
I1
sV\u5806
p859
I1
sV\u7c89
p860
I2
sV\u8910
p861
I2
sV\u9499
p862
I2
sV\u9a9d
p863
I1
sV\u80a1
p864
I2
sV\u6222
p865
I1
sV\u63b7
p866
I2
sV\u8036
p867
I1
sV\u69bb
p868
I2
sV\u87cf
p869
I1
sV\u4ed5
p870
I2
sV\u5c5e
p871
I2
sV\u8160
p872
I2
sV\u51eb
p873
I1
sV\u98f1
p874
I1
sV\u5df3
p875
I2
sV\u6076
p876
I2
sV\u667a
p877
I2
sV\u6c7e
p878
I1
sV\u5180
p879
I2
sV\u7503
p880
I2
sV\u5784
p881
I2
sV\u9886
p882
I2
sV\u4f94
p883
I1
sV\u7b9c
p884
I1
sV\u6da8
p885
I2
sV\u722d
p886
I1
sV\u5ab2
p887
I2
sV\u6a3d
p888
I1
sV\u8bbc
p889
I2
sV\u9041
p890
I2
sV\u5543
p891
I2
sV\u72c2
p892
I1
sV\u9645
p893
I2
sV\u7eca
p894
I2
sV\u64ce
p895
I1
sV\u795b
p896
I1
sV\u7f5f
p897
I2
sV\u9cde
p898
I1
sV\u6563
p899
I2
sV\u6b67
p900
I1
sV\u79f0
p901
I1
sV\u8377
p902
I1
sV\u65f8
p903
I1
sV\u8f7f
p904
I2
sV\u800c
p905
I1
sV\u6d95
p906
I2
sV\u8c14
p907
I2
sV\u7316
p908
I1
sV\u5a9b
p909
I2
sV\u751a
p910
I1
sV\u7f1e
p911
I1
sV\u8fa9
p912
I2
sV\u6d2a
p913
I1
sV\u502c
p914
I1
sV\u7eb3
p915
I2
sV\u8336
p916
I1
sV\u853a
p917
I2
sV\u6cbf
p918
I1
sV\u53c1
p919
I1
sV\u55c5
p920
I2
sV\u5fc9
p921
I1
sV\u6a50
p922
I1
sV\u5356
p923
I2
sV\u63e1
p924
I2
sV\u65e5
p925
I2
sV\u6fe9
p926
I2
sV\u91ed
p927
I1
sV\u7972
p928
I2
sV\u6376
p929
I1
sV\u87f9
p930
I2
sV\u5484
p931
I1
sV\u640f
p932
I1
sV\u9017
p933
I2
sV\u62a0
p934
I1
sV\u64a4
p935
I2
sV\u712d
p936
I1
sV\u57ae
p937
I2
sV\u7b31
p938
I2
sV\u9ab0
p939
I1
sV\u693d
p940
I1
sV\u7bc6
p941
I2
sV\u67ce
p942
I1
sV\u93d6
p943
I1
sV\u6867
p944
I2
sV\u8be6
p945
I1
sV\u8dea
p946
I2
sV\u516d
p947
I2
sV\u70ec
p948
I2
sV\u5b71
p949
I2
sV\u9e73
p950
I2
sV\u68fc
p951
I1
sV\u7281
p952
I1
sV\u9504
p953
I1
sV\u5a06
p954
I1
sV\u5c0a
p955
I1
sV\u608d
p956
I2
sV\u5197
p957
I2
sV\u9699
p958
I2
sV\u5b9b
p959
I2
sV\u741a
p960
I1
sV\u989d
p961
I1
sV\u82a1
p962
I2
sV\u8ea9
p963
I1
sV\u73ab
p964
I1
sV\u75af
p965
I1
sV\u962e
p966
I2
sV\u8236
p967
I1
sV\u6dbf
p968
I1
sV\u5ec9
p969
I1
sV\u614c
p970
I1
sV\u85cf
p971
I1
sV\u8fd3
p972
I2
sV\u6d54
p973
I1
sV\u5256
p974
I1
sV\u5e5e
p975
I1
sV\u8360
p976
I2
sV\u8564
p977
I1
sV\u6ee9
p978
I1
sV\u8f68
p979
I2
sV\u53eb
p980
I2
sV\u90ed
p981
I1
sV\u6276
p982
I1
sV\u6e7e
p983
I1
sV\u9082
p984
I2
sV\u5584
p985
I2
sV\u9a86
p986
I2
sV\u5f88
p987
I2
sV\u9c8a
p988
I2
sV\u6f13
p989
I1
sV\u8892
p990
I2
sV\u63a0
p991
I2
sV\u65a4
p992
I1
sV\u8927
p993
I2
sV\u683d
p994
I1
sV\u70c2
p995
I2
sV\u5947
p996
I1
sV\u9e49
p997
I2
sV\u7cca
p998
I1
sV\u4f53
p999
I2
sV\u68d2
p1000
I2
sV\u8c55
p1001
I2
sV\u57d8
p1002
I1
sV\u7b5b
p1003
I1
sV\u59dc
p1004
I1
sV\u4fe8
p1005
I2
sV\u5d06
p1006
I1
sV\u678d
p1007
I2
sV\u6d91
p1008
I2
sV\u8c10
p1009
I1
sV\u5c9b
p1010
I2
sV\u4ea7
p1011
I2
sV\u72af
p1012
I2
sV\u912e
p1013
I2
sV\u5a34
p1014
I1
sV\u6cbb
p1015
I2
sV\u893e
p1016
I2
sV\u7440
p1017
I2
sV\u664c
p1018
I2
sV\u82cf
p1019
I1
sV\u6c50
p1020
I1
sV\u5556
p1021
I2
sV\u535a
p1022
I1
sV\u9e5c
p1023
I2
sV\u8868
p1024
I2
sV\u97ed
p1025
I2
sV\u716e
p1026
I2
sV\u58f3
p1027
I1
sV\u7f72
p1028
I2
sV\u637a
p1029
I2
sV\u8ffd
p1030
I1
sV\u5480
p1031
I2
sV\u7003
p1032
I2
sV\u620f
p1033
I2
sV\u6813
p1034
I1
sV\u9617
p1035
I1
sV\u62a4
p1036
I2
sV\u68a8
p1037
I1
sV\u9cb0
p1038
I1
sV\u80b8
p1039
I1
sV\u5043
p1040
I2
sV\u8d51
p1041
I2
sV\u6fd2
p1042
I1
sV\u6063
p1043
I2
sV\u87e2
p1044
I2
sV\u60f8
p1045
I1
sV\u7481
p1046
I1
sV\u9500
p1047
I1
sV\u5c06
p1048
I1
sV\u7889
p1049
I1
sV\u668d
p1050
I1
sV\u9099
p1051
I1
sV\u721a
p1052
I2
sV\u9e9d
p1053
I2
sV\u82a5
p1054
I2
sV\u4fa7
p1055
I2
sV\u75ab
p1056
I2
sV\u6a2a
p1057
I1
sV\u572c
p1058
I1
sV\u73af
p1059
I1
sV\u902e
p1060
I2
sV\u79b3
p1061
I1
sV\u9e32
p1062
I1
sV\u5b34
p1063
I1
sV\u67b7
p1064
I1
sV\u4f3c
p1065
I2
sV\u6bbf
p1066
I2
sV\u54c1
p1067
I2
sV\u7540
p1068
I2
sV\u7948
p1069
I1
sV\u674c
p1070
I2
sV\u6d50
p1071
I2
sV\u6b54
p1072
I1
sV\u70d9
p1073
I2
sV\u7edd
p1074
I1
sV\u585e
p1075
I1
sV\u62e5
p1076
I1
sV\u8364
p1077
I1
sV\u55eb
p1078
I2
sV\u53ef
p1079
I2
sV\u5384
p1080
I2
sV\u7f07
p1081
I1
sV\u5988
p1082
I1
sV\u9a8a
p1083
I1
sV\u5019
p1084
I2
sV\u5e1d
p1085
I2
sV\u9b1f
p1086
I1
sV\u8f27
p1087
I1
sV\u69a8
p1088
I2
sV\u97ac
p1089
I1
sV\u5143
p1090
I1
sV\u76c2
p1091
I1
sV\u94d6
p1092
I1
sV\u51d8
p1093
I1
sV\u98de
p1094
I1
sV\u956b
p1095
I2
sV\u566d
p1096
I2
sV\u5c71
p1097
I1
sV\u5a75
p1098
I1
sV\u7bf4
p1099
I1
sV\u9600
p1100
I1
sV\u9004
p1101
I1
sV\u840c
p1102
I1
sV\u6995
p1103
I1
sV\u711a
p1104
I1
sV\u589f
p1105
I1
sV\u7b1e
p1106
I1
sV\u6f26
p1107
I1
sV\u8ba9
p1108
I2
sV\u542c
p1109
I1
sV\u70af
p1110
I2
sV\u64b7
p1111
I1
sV\u86cb
p1112
I2
sV\u6854
p1113
I1
sV\u515a
p1114
I2
sV\u56eb
p1115
I1
sV\u95ed
p1116
I2
sV\u736e
p1117
I2
sV\u83f9
p1118
I1
sV\u4efb
p1119
I2
sV\u7c07
p1120
I2
sV\u9f86
p1121
I1
sV\u998a
p1122
I1
sV\u838e
p1123
I1
sV\u5319
p1124
I1
sV\u8223
p1125
I2
sV\u8c27
p1126
I2
sV\u53ae
p1127
I1
sV\u7f31
p1128
I2
sV\u9eb0
p1129
I1
sV\u6339
p1130
I2
sV\u82b8
p1131
I1
sV\u6d3d
p1132
I2
sV\u5243
p1133
I2
sV\u9b49
p1134
I2
sV\u8955
p1135
I1
sV\u7457
p1136
I2
sV\u52d8
p1137
I1
sV\u6263
p1138
I2
sV\u8fe6
p1139
I1
sV\u556d
p1140
I2
sV\u5f71
p1141
I2
sV\u7ef0
p1142
I2
sV\u9a73
p1143
I1
sV\u78f4
p1144
I2
sV\u8e7b
p1145
I1
sV\u6cfc
p1146
I1
sV\u887f
p1147
I1
sV\u9700
p1148
I1
sV\u5e06
p1149
I1
sV\u850c
p1150
I2
sV\u701a
p1151
I2
sV\u86a1
p1152
I1
sV\u6422
p1153
I2
sV\u80a5
p1154
I1
sV\u682a
p1155
I1
sV\u5934
p1156
I1
sV\u7740
p1157
I1
sV\u9dc7
p1158
I2
sV\u5ac9
p1159
I1
sV\u87cb
p1160
I1
sV\u654c
p1161
I1
sV\u4ed1
p1162
I1
sV\u6954
p1163
I1
sV\u72d9
p1164
I1
sV\u505a
p1165
I2
sV\u8760
p1166
I1
sV\u4e66
p1167
I1
sV\u94ed
p1168
I1
sV\u51ef
p1169
I2
sV\u6676
p1170
I1
sV\u82f9
p1171
I1
sV\u607a
p1172
I2
sV\u7303
p1173
I2
sV\u5b88
p1174
I2
sV\u670b
p1175
I1
sV\u988a
p1176
I1
sV\u610f
p1177
I2
sV\u828e
p1178
I1
sV\u6b13
p1179
I2
sV\u5219
p1180
I1
sV\u9f1b
p1181
I1
sV\u5c1d
p1182
I1
sV\u8d27
p1183
I2
sV\u5343
p1184
I1
sV\u5d47
p1185
I1
sV\u7ec6
p1186
I2
sV\u78ca
p1187
I2
sV\u8e51
p1188
I2
sV\u53d8
p1189
I2
sV\u7f5b
p1190
I1
sV\u795f
p1191
I2
sV\u6363
p1192
I2
sV\u976b
p1193
I1
sV\u7ff0
p1194
I2
sV\u5875
p1195
I1
sV\u8f7b
p1196
I1
sV\u6dfc
p1197
I2
sV\u897f
p1198
I1
sV\u7981
p1199
I2
sV\u7f85
p1200
I1
sV\u5106
p1201
I2
sV\u6191
p1202
I1
sV\u8010
p1203
I2
sV\u6795
p1204
I2
sV\u7f1a
p1205
I2
sV\u6b22
p1206
I1
sV\u672a
p1207
I2
sV\u7eaf
p1208
I1
sV\u5634
p1209
I2
sV\u7840
p1210
I2
sV\u9cc3
p1211
I1
sV\u5fc5
p1212
I2
sV\u7e44
p1213
I1
sV\u8ecf
p1214
I2
sV\u6050
p1215
I2
sV\u84d3
p1216
I2
sV\u5956
p1217
I2
sV\u8e64
p1218
I1
sV\u65e9
p1219
I2
sV\u58eb
p1220
I2
sV\u7d6e
p1221
I2
sV\u54f3
p1222
I1
sV\u97f5
p1223
I2
sV\u8df9
p1224
I1
sV\u6f7a
p1225
I1
sV\u83fd
p1226
I1
sV\u5880
p1227
I1
sV\u7c03
p1228
I1
sV\u5e84
p1229
I1
sV\u7207
p1230
I2
sV\u9186
p1231
I2
sV\u680b
p1232
I2
sV\u6413
p1233
I1
sV\u8392
p1234
I2
sV\u7c98
p1235
I1
sV\u531d
p1236
I1
sV\u729c
p1237
I1
sV\u961f
p1238
I2
sV\u8c23
p1239
I1
sV\u4f25
p1240
I1
sV\u7b2d
p1241
I1
sV\u5dae
p1242
I2
sV\u90b0
p1243
I1
sV\u633d
p1244
I2
sV\u9941
p1245
I2
sV\u5c43
p1246
I2
sV\u9f45
p1247
I2
sV\u4e4f
p1248
I1
sV\u8151
p1249
I2
sV\u63d2
p1250
I1
sV\u7a57
p1251
I2
sV\u8be2
p1252
I1
sV\u4ee4
p1253
I2
sV\u6267
p1254
I1
sV\u87ea
p1255
I2
sV\u9e6f
p1256
I1
sV\u5171
p1257
I2
sV\u76f4
p1258
I1
sV\u6cf8
p1259
I1
sV\u62fc
p1260
I1
sV\u867f
p1261
I2
sV\u9508
p1262
I2
sV\u8110
p1263
I1
sV\u5b97
p1264
I1
sV\u7816
p1265
I1
sV\u9c99
p1266
I2
sV\u519b
p1267
I1
sV\u7faf
p1268
I1
sV\u6bb7
p1269
I1
sV\u67bf
p1270
I2
sV\u58c1
p1271
I2
sV\u7940
p1272
I2
sV\u9dc3
p1273
I2
sV\u7f44
p1274
I2
sV\u54c9
p1275
I1
sV\u6b4c
p1276
I1
sV\u85d3
p1277
I2
sV\u7cd9
p1278
I1
sV\u72dd
p1279
I2
sV\u6ee5
p1280
I2
sV\u8568
p1281
I1
sV\u9aed
p1282
I1
sV\u7272
p1283
I1
sV\u6876
p1284
I2
sV\u9a82
p1285
I2
sV\u5f84
p1286
I2
sV\u5588
p1287
I1
sV\u6f0f
p1288
I2
sV\u8292
p1289
I1
sV\u521d
p1290
I1
sV\u8d23
p1291
I1
sV\u4e25
p1292
I1
sV\u8327
p1293
I2
sV\u52b2
p1294
I2
sV\u7635
p1295
I2
sV\u97b4
p1296
I2
sV\u4eba
p1297
I1
sV\u623d
p1298
I2
sV\u83bc
p1299
I1
sV\u9e45
p1300
I1
sV\u5347
p1301
I1
sV\u76ca
p1302
I2
sV\u4f4f
p1303
I2
sV\u62d2
p1304
I2
sV\u98d6
p1305
I1
sV\u5dd8
p1306
I2
sV\u775f
p1307
I2
sV\u6d63
p1308
I2
sV\u6367
p1309
I2
sV\u996b
p1310
I2
sV\u9573
p1311
I1
sV\u817b
p1312
I2
sV\u9a00
p1313
I2
sV\u5306
p1314
I1
sV\u9608
p1315
I2
sV\u4f0e
p1316
I2
sV\u8210
p1317
I2
sV\u9f99
p1318
I1
sV\u529b
p1319
I2
sV\u8ba1
p1320
I2
sV\u7caf
p1321
I2
sV\u5230
p1322
I2
sV\u5434
p1323
I1
sV\u4e38
p1324
I1
sV\u8d3a
p1325
I2
sV\u7a40
p1326
I2
sV\u5dc5
p1327
I1
sV\u90c7
p1328
I1
sV\u684c
p1329
I1
sV\u6454
p1330
I1
sV\u5b56
p1331
I1
sV\u7fd9
p1332
I2
sV\u9e58
p1333
I2
sV\u5d5a
p1334
I1
sV\u575e
p1335
I2
sV\u6be1
p1336
I1
sV\u67e9
p1337
I2
sV\u5aeb
p1338
I1
sV\u7f6e
p1339
I2
sV\u95f5
p1340
I2
sV\u8ff9
p1341
I1
sV\u677e
p1342
I1
sV\u6c0f
p1343
I2
sV\u8f8e
p1344
I1
sV\u6613
p1345
I2
sV\u709c
p1346
I2
sV\u941f
p1347
I1
sV\u6aa0
p1348
I1
sV\u6ca4
p1349
I1
sV\u66a8
p1350
I2
sV\u5fae
p1351
I1
sV\u7331
p1352
I1
sV\u51b2
p1353
I1
sV\u7535
p1354
I2
sV\u9b41
p1355
I1
sV\u5047
p1356
I2
sV\u75ca
p1357
I1
sV\u6fce
p1358
I2
sV\u8351
p1359
I1
sV\u61d2
p1360
I2
sV\u7857
p1361
I1
sV\u5ed8
p1362
I2
sV\u725b
p1363
I1
sV\u745f
p1364
I2
sV\u596d
p1365
I2
sV\u78ec
p1366
I2
sV\u5371
p1367
I1
sV\u8877
p1368
I1
sV\u7a81
p1369
I1
sV\u5802
p1370
I1
sV\u5206
p1371
I1
sV\u9708
p1372
I2
sV\u540a
p1373
I2
sV\u4e0e
p1374
I2
sV\u6291
p1375
I2
sV\u6495
p1376
I1
sV\u8514
p1377
I1
sV\u4fa3
p1378
I2
sV\u86a9
p1379
I1
sV\u7bab
p1380
I1
sV\u7daf
p1381
I1
sV\u9e2e
p1382
I1
sV\u77b3
p1383
I1
sV\u69b7
p1384
I2
sV\u4f38
p1385
I1
sV\u65bf
p1386
I1
sV\u5ac1
p1387
I2
sV\u91c7
p1388
I2
sV\u8bcb
p1389
I2
sV\u8dcf
p1390
I1
sV\u6350
p1391
I1
sV\u6554
p1392
I2
sV\u7ed9
p1393
I2
sV\u70dd
p1394
I1
sV\u6ce5
p1395
I1
sV\u8d64
p1396
I2
sV\u66e9
p1397
I2
sV\u80fd
p1398
I1
sV\u7f03
p1399
I1
sV\u9882
p1400
I2
sV\u948a
p1401
I1
sV\u6713
p1402
I2
sV\u9917
p1403
I2
sV\u5e19
p1404
I2
sV\u6da4
p1405
I1
sV\u67a8
p1406
I1
sV\u782d
p1407
I1
sV\u7231
p1408
I2
sV\u50b2
p1409
I2
sV\u7435
p1410
I1
sV\u9649
p1411
I1
sV\u884d
p1412
I2
sV\u8251
p1413
I2
sV\u7957
p1414
I1
sV\u5fd8
p1415
I2
sV\u6167
p1416
I2
sV\u82e6
p1417
I2
sV\u84ea
p1418
I1
sV\u73f0
p1419
I1
sV\u9773
p1420
I2
sV\u5475
p1421
I1
sV\u75f4
p1422
I1
sV\u837b
p1423
I1
sV\u61fc
p1424
I2
sV\u5f02
p1425
I2
sV\u7b85
p1426
I2
sV\u9a04
p1427
I2
sV\u5506
p1428
I1
sV\u6f8d
p1429
I2
sV\u8e0c
p1430
I1
sV\u6591
p1431
I1
sV\u8410
p1432
I2
sV\u8214
p1433
I2
sV\u5e97
p1434
I2
sV\u9999
p1435
I1
sV\u549b
p1436
I1
sV\u529f
p1437
I1
sV\u8ba5
p1438
I1
sV\u992e
p1439
I2
sV\u70b3
p1440
I2
sV\u9732
p1441
I2
sV\u6eb7
p1442
I2
sV\u8d36
p1443
I2
sV\u62bf
p1444
I2
sV\u813e
p1445
I1
sV\u7c40
p1446
I2
sV\u5bc5
p1447
I1
sV\u51c9
p1448
I1
sV\u6450
p1449
I1
sV\u6254
p1450
I1
sV\u5b5a
p1451
I1
sV\u6de1
p1452
I2
sV\u95f1
p1453
I1
sV\u4ef7
p1454
I2
sV\u617e
p1455
I2
sV\u6c0b
p1456
I1
sV\u4e8c
p1457
I2
sV\u5919
p1458
I2
sV\u8627
p1459
I1
sV\u60a8
p1460
I1
sV\u7f2d
p1461
I1
sV\u59ae
p1462
I1
sV\u7531
p1463
I1
sV\u7335
p1464
I1
sV\u6939
p1465
I2
sV\u673d
p1466
I2
sV\u9b45
p1467
I2
sV\u9149
p1468
I2
sV\u73ca
p1469
I1
sV\u69ce
p1470
I1
sV\u67d2
p1471
I1
sV\u9dd6
p1472
I1
sV\u745b
p1473
I1
sV\u725f
p1474
I1
sV\u8fe2
p1475
I1
sV\u5f6d
p1476
I1
sV\u9a6f
p1477
I1
sV\u5375
p1478
I2
sV\u66fc
p1479
I2
sV\u5e02
p1480
I2
sV\u7a85
p1481
I2
sV\u5406
p1482
I1
sV\u7089
p1483
I1
sV\u520a
p1484
I1
sV\u6491
p1485
I1
sV\u6295
p1486
I1
sV\u8314
p1487
I1
sV\u5f97
p1488
I1
sV\u9899
p1489
I1
sV\u7a1a
p1490
I2
sV\u539f
p1491
I1
sV\u6426
p1492
I2
sV\u80a9
p1493
I1
sV\u622a
p1494
I1
sV\u71b3
p1495
I2
sV\u9632
p1496
I1
sV\u8c36
p1497
I2
sV\u8dcb
p1498
I1
sV\u4ecd
p1499
I1
sV\u8bcf
p1500
I2
sV\u9958
p1501
I1
sV\u5a5a
p1502
I1
sV\u76dd
p1503
I2
sV\u6ce1
p1504
I2
sV\u8d60
p1505
I2
sV\u60e9
p1506
I1
sV\u5deb
p1507
I1
sV\u786e
p1508
I2
sV\u51f3
p1509
I2
sV\u6c76
p1510
I2
sV\u88f9
p1511
I2
sV\u9e82
p1512
I2
sV\u5b84
p1513
I2
sV\u7707
p1514
I2
sV\u5188
p1515
I1
sV\u6d0b
p1516
I1
sV\u888e
p1517
I2
sV\u9f17
p1518
I1
sV\u61a8
p1519
I1
sV\u7235
p1520
I1
sV\u6839
p1521
I1
sV\u7ec2
p1522
I1
sV\u5747
p1523
I1
sV\u8451
p1524
I1
sV\u7f57
p1525
I1
sV\u9cd6
p1526
I1
sV\u755b
p1527
I2
sV\u6963
p1528
I1
sV\u84e6
p1529
I2
sV\u9b6f
p1530
I2
sV\u75f0
p1531
I1
sV\u7f81
p1532
I1
sV\u9e00
p1533
I2
sV\u5d02
p1534
I1
sV\u7985
p1535
I1
sV\u5706
p1536
I1
sV\u7389
p1537
I2
sV\u8c0c
p1538
I1
sV\u5c97
p1539
I2
sV\u7f16
p1540
I1
sV\u6d22
p1541
I1
sV\u6726
p1542
I1
sV\u83a9
p1543
I1
sV\u7eab
p1544
I2
sV\u6cb7
p1545
I1
sV\u8f36
p1546
I1
sV\u53c9
p1547
I1
sV\u7248
p1548
I2
sV\u82d3
p1549
I1
sV\u5f56
p1550
I2
sV\u7bd9
p1551
I1
sV\u595a
p1552
I1
sV\u535e
p1553
I2
sV\u6fe1
p1554
I1
sV\u63e9
p1555
I1
sV\u8268
p1556
I1
sV\u7b6e
p1557
I2
sV\u7572
p1558
I1
sV\u8bf9
p1559
I1
sV\u5288
p1560
I1
sV\u918a
p1561
I2
sV\u680f
p1562
I1
sV\u961b
p1563
I1
sV\u749c
p1564
I1
sV\u901f
p1565
I2
sV\u8427
p1566
I1
sV\u96b0
p1567
I1
sV\u90b4
p1568
I2
sV\u6b39
p1569
I1
sV\u4e4b
p1570
I1
sV\u8d4d
p1571
I1
sV\u65d2
p1572
I1
sV\u8155
p1573
I2
sV\u5ad8
p1574
I1
sV\u6467
p1575
I1
sV\u9e6b
p1576
I2
sV\u81ea
p1577
I2
sV\u5175
p1578
I1
sV\u807f
p1579
I2
sV\u7e81
p1580
I1
sV\u6c8d
p1581
I2
sV\u6691
p1582
I2
sV\u8114
p1583
I1
sV\u579b
p1584
I2
sV\u781a
p1585
I2
sV\u949d
p1586
I2
sV\u82a9
p1587
I1
sV\u602a
p1588
I2
sV\u5730
p1589
I1
sV\u73b3
p1590
I2
sV\u67bb
p1591
I2
sV\u58c5
p1592
I1
sV\u95c7
p1593
I2
sV\u52c9
p1594
I2
sV\u89cf
p1595
I2
sV\u6750
p1596
I1
sV\u7ad9
p1597
I2
sV\u585a
p1598
I2
sV\u955c
p1599
I2
sV\u6ee1
p1600
I2
sV\u62e9
p1601
I1
sV\u5feb
p1602
I2
sV\u53f3
p1603
I2
sV\u627e
p1604
I2
sV\u5f80
p1605
I2
sV\u7b03
p1606
I2
sV\u9c82
p1607
I1
sV\u5984
p1608
I2
sV\u9686
p1609
I1
sV\u541d
p1610
I2
sV\u63a8
p1611
I1
sV\u9dac
p1612
I1
sV\u91b4
p1613
I2
sV\u4eb6
p1614
I2
sV\u8bb8
p1615
I2
sV\u76c6
p1616
I1
sV\u8651
p1617
I2
sV\u64d2
p1618
I1
sV\u5bd8
p1619
I2
sV\u775b
p1620
I1
sV\u98da
p1621
I1
sV\u55dc
p1622
I2
sV\u6b63
p1623
I2
sV\u80ea
p1624
I1
sV\u996f
p1625
I2
sV\u77f0
p1626
I1
sV\u8d77
p1627
I2
sV\u817f
p1628
I2
sV\u6302
p1629
I2
sV\u8a87
p1630
I1
sV\u908b
p1631
I1
sV\u968f
p1632
I1
sV\u5f95
p1633
I1
sV\u6297
p1634
I2
sV\u6e9f
p1635
I1
sV\u9020
p1636
I2
sV\u9624
p1637
I2
sV\u622c
p1638
I2
sV\u6e34
p1639
I2
sV\u7a3c
p1640
I2
sV\u67c5
p1641
I2
sV\u8946
p1642
I1
sV\u73cd
p1643
I1
sV\u524c
p1644
I1
sV\u79d1
p1645
I1
sV\u7fd5
p1646
I1
sV\u5e54
p1647
I2
sV\u82d7
p1648
I1
sV\u88db
p1649
I2
sV\u51e1
p1650
I1
sV\u9ae7
p1651
I2
sV\u5de9
p1652
I2
sV\u7f6a
p1653
I2
sV\u8870
p1654
I1
sV\u6cf3
p1655
I2
sV\u8e74
p1656
I2
sV\u72f7
p1657
I2
sV\u5176
p1658
I1
sV\u78fb
p1659
I1
sV\u9a7c
p1660
I1
sV\u7eff
p1661
I2
sV\u8101
p1662
I2
sV\u6684
p1663
I1
sV\u6c88
p1664
I2
sV\u560f
p1665
I2
sV\u7725
p1666
I2
sV\u9e3f
p1667
I1
sV\u86c4
p1668
I1
sV\u4fca
p1669
I2
sV\u98d0
p1670
I2
sV\u5bd2
p1671
I1
sV\u9ed4
p1672
I1
sV\u8559
p1673
I2
sV\u64d8
p1674
I1
sV\u6adc
p1675
I1
sV\u4e5f
p1676
I2
sV\u9161
p1677
I1
sV\u9765
p1678
I2
sV\u76e4
p1679
I1
sV\u9d69
p1680
I1
sV\u636d
p1681
I2
sV\u8bf2
p1682
I2
sV\u7579
p1683
I2
sV\u918b
p1684
I2
sV\u6e0a
p1685
I1
sV\u740e
p1686
I2
sV\u5e95
p1687
I2
sV\u699b
p1688
I1
sV\u9120
p1689
I2
sV\u9724
p1690
I2
sV\u7ba7
p1691
I2
sV\u5826
p1692
I1
sV\u82ad
p1693
I1
sV\u6930
p1694
I1
sV\u7538
p1695
I1
sV\u59bb
p1696
I1
sV\u7b3c
p1697
I1
sV\u6cc9
p1698
I1
sV\u8e4a
p1699
I1
sV\u534c
p1700
I2
sV\u78d1
p1701
I1
sV\u7ed5
p1702
I2
sV\u665a
p1703
I2
sV\u8fdf
p1704
I1
sV\u6c5e
p1705
I2
sV\u7262
p1706
I1
sV\u67ef
p1707
I1
sV\u6df3
p1708
I1
sV\u8f74
p1709
I1
sV\u5076
p1710
I2
sV\u79fb
p1711
I1
sV\u8001
p1712
I2
sV\u6180
p1713
I1
sV\u8605
p1714
I1
sV\u6784
p1715
I2
sV\u8c09
p1716
I2
sV\u6d88
p1717
I1
sV\u510b
p1718
I1
sV\u7f94
p1719
I1
sV\u8096
p1720
I2
sV\u7021
p1721
I2
sV\u51a0
p1722
I1
sV\u57a4
p1723
I1
sV\u98a6
p1724
I1
sV\u64ae
p1725
I1
sV\u8d33
p1726
I2
sV\u5439
p1727
I1
sV\u7cbe
p1728
I1
sV\u6b47
p1729
I1
sV\u4eca
p1730
I1
sV\u54ce
p1731
I1
sV\u4f5f
p1732
I1
sV\u71e0
p1733
I2
sV\u626d
p1734
I2
sV\u5bfc
p1735
I2
sV\u8683
p1736
I2
sV\u6d0a
p1737
I2
sV\u518d
p1738
I2
sV\u948f
p1739
I2
sV\u9e93
p1740
I2
sV\u6c9f
p1741
I1
sV\u4f1e
p1742
I2
sV\u78a7
p1743
I2
sV\u8db5
p1744
I2
sV\u6c34
p1745
I2
sV\u5cbf
p1746
I1
sV\u65c5
p1747
I2
sV\u8b46
p1748
I1
sV\u4e48
p1749
I1
sV\u8d4a
p1750
I1
sV\u7bd1
p1751
I2
sV\u6f5e
p1752
I2
sV\u55e5
p1753
I1
sV\u98e7
p1754
I1
sV\u7b66
p1755
I2
sV\u7d6a
p1756
I1
sV\u8301
p1757
I1
sV\u6280
p1758
I2
sV\u6484
p1759
I1
sV\u540f
p1760
I2
sV\u7c94
p1761
I2
sV\u8f9e
p1762
I1
sV\u52a0
p1763
I1
sV\u91a2
p1764
I2
sV\u7525
p1765
I1
sV\u54a4
p1766
I2
sV\u7f29
p1767
I1
sV\u822b
p1768
I2
sV\u5739
p1769
I2
sV\u6643
p1770
I2
sV\u84c4
p1771
I2
sV\u57ce
p1772
I1
sV\u59d2
p1773
I2
sV\u8759
p1774
I1
sV\u72e0
p1775
I2
sV\u7ee8
p1776
I1
sV\u616d
p1777
I2
sV\u7779
p1778
I2
sV\u95fa
p1779
I1
sV\u58fc
p1780
I2
sV\u8783
p1781
I1
sV\u4e89
p1782
I1
sV\u508d
p1783
I2
sV\u7812
p1784
I1
sV\u8718
p1785
I1
sV\u6b9b
p1786
I1
sV\u6d9f
p1787
I1
sV\u4e1e
p1788
I1
sV\u9524
p1789
I1
sV\u79a7
p1790
I2
sV\u612c
p1791
I2
sV\u51b7
p1792
I2
sV\u96b9
p1793
I1
sV\u7738
p1794
I1
sV\u793c
p1795
I2
sV\u8042
p1796
I2
sV\u64c5
p1797
I2
sV\u5b50
p1798
I1
sV\u7cd5
p1799
I1
sV\u8bdb
p1800
I1
sV\u8ddf
p1801
I1
sV\u54e5
p1802
I1
sV\u8d74
p1803
I2
sV\u9778
p1804
I2
sV\u997c
p1805
I2
sV\u8201
p1806
I1
sV\u6380
p1807
I1
sV\u8e09
p1808
I1
sV\u6f88
p1809
I2
sV\u900d
p1810
I1
sV\u550f
p1811
I1
sV\u9a11
p1812
I1
sV\u7b90
p1813
I2
sV\u5f13
p1814
I1
sV\u6619
p1815
I1
sV\u681d
p1816
I1
sV\u8e9e
p1817
I2
sV\u90a2
p1818
I1
sV\u7425
p1819
I2
sV\u9aa6
p1820
I1
sV\u5fa8
p1821
I1
sV\u832b
p1822
I1
sV\u66ae
p1823
I2
sV\u72b6
p1824
I2
sV\u5639
p1825
I1
sV\u9b3b
p1826
I2
sV\u7ebe
p1827
I1
sV\u6743
p1828
I1
sV\u8fc8
p1829
I2
sV\u91cc
p1830
I2
sV\u754f
p1831
I2
sV\u67d8
p1832
I2
sV\u73e0
p1833
I1
sV\u9e69
p1834
I1
sV\u606d
p1835
I1
sV\u86ee
p1836
I1
sV\u6a71
p1837
I1
sV\u94fa
p1838
I2
sV\u9efe
p1839
I2
sV\u8083
p1840
I2
sV\u8e87
p1841
I1
sV\u9893
p1842
I1
sV\u7f12
p1843
I2
sV\u5b95
p1844
I2
sV\u6697
p1845
I2
sV\u8018
p1846
I1
sV\u6c9b
p1847
I2
sV\u7ea7
p1848
I1
sV\u5d26
p1849
I1
sV\u87ad
p1850
I1
sV\u662c
p1851
I1
sV\u8db1
p1852
I2
sV\u8bb5
p1853
I2
sV\u56b7
p1854
I2
sV\u65c1
p1855
I1
sV\u63c5
p1856
I1
sV\u8d46
p1857
I2
sV\u77cd
p1858
I1
sV\u914e
p1859
I2
sV\u5c50
p1860
I1
sV\u6556
p1861
I1
sV\u4fdd
p1862
I2
sV\u695e
p1863
I1
sV\u7762
p1864
I1
sV\u53e5
p1865
I2
sV\u64eb
p1866
I2
sV\u866c
p1867
I1
sV\u62ef
p1868
I2
sV\u8c70
p1869
I1
sV\u7cfb
p1870
I2
sV\u537a
p1871
I2
sV\u7aff
p1872
I1
sV\u8305
p1873
I1
sV\u6284
p1874
I1
sV\u4e07
p1875
I2
sV\u8909
p1876
I2
sV\u970d
p1877
I2
sV\u7a94
p1878
I2
sV\u58a8
p1879
I2
sV\u73ba
p1880
I2
sV\u79be
p1881
I1
sV\u6043
p1882
I2
sV\u88c8
p1883
I1
sV\u96cc
p1884
I1
sV\u5fd2
p1885
I2
sV\u60d8
p1886
I2
sV\u74e0
p1887
I2
sV\u78e8
p1888
I1
sV\u676d
p1889
I1
sV\u95f6
p1890
I1
sV\u7f7d
p1891
I2
sV\u6602
p1892
I1
sV\u8f87
p1893
I2
sV\u6a0a
p1894
I1
sV\u5c91
p1895
I1
sV\u6797
p1896
I1
sV\u6d9b
p1897
I1
sV\u672c
p1898
I2
sV\u90b9
p1899
I1
sV\u5bbf
p1900
I2
sV\u62c5
p1901
I1
sV\u8c46
p1902
I2
sV\u68c9
p1903
I1
sV\u76cd
p1904
I1
sV\u9e52
p1905
I1
sV\u5b54
p1906
I2
sV\u8ddb
p1907
I2
sV\u4edd
p1908
I1
sV\u8d70
p1909
I2
sV\u9178
p1910
I1
sV\u587e
p1911
I1
sV\u8401
p1912
I1
sV\u8205
p1913
I2
sV\u6988
p1914
I1
sV\u960d
p1915
I1
sV\u778c
p1916
I1
sV\u530f
p1917
I1
sV\u9a15
p1918
I2
sV\u7b94
p1919
I1
sV\u6019
p1920
I2
sV\u829a
p1921
I1
sV\u6e1d
p1922
I1
sV\u889e
p1923
I2
sV\u59a8
p1924
I1
sV\u852b
p1925
I1
sV\u832f
p1926
I1
sV\u6eb2
p1927
I1
sV\u5e3d
p1928
I2
sV\u78be
p1929
I2
sV\u6f47
p1930
I1
sV\u89c8
p1931
I2
sV\u754b
p1932
I1
sV\u7953
p1933
I1
sV\u5ed2
p1934
I1
sV\u9265
p1935
I2
sV\u5f67
p1936
I2
sV\u94f6
p1937
I1
sV\u51f8
p1938
I1
sV\u6f06
p1939
I1
sV\u968b
p1940
I1
sV\u558d
p1941
I1
sV\u730e
p1942
I2
sV\u9a93
p1943
I1
sV\u8c1c
p1944
I1
sV\u5522
p1945
I2
sV\u9024
p1946
I2
sV\u5f26
p1947
I1
sV\u592a
p1948
I2
sV\u642c
p1949
I1
sV\u8fb1
p1950
I2
sV\u6834
p1951
I1
sV\u54b7
p1952
I1
sV\u67c1
p1953
I2
sV\u75cd
p1954
I1
sV\u79d5
p1955
I2
sV\u5854
p1956
I2
sV\u6756
p1957
I2
sV\u88df
p1958
I1
sV\u846c
p1959
I2
sV\u60ef
p1960
I2
sV\u8e70
p1961
I1
sV\u74f7
p1962
I1
sV\u7efb
p1963
I2
sV\u9c7c
p1964
I1
sV\u6084
p1965
I1
sV\u500f
p1966
I1
sV\u6db2
p1967
I2
sV\u77b6
p1968
I2
sV\u5339
p1969
I2
sV\u5d3d
p1970
I2
sV\u86c0
p1971
I2
sV\u6243
p1972
I1
sV\u80c4
p1973
I2
sV\u6c47
p1974
I2
sV\u704f
p1975
I2
sV\u98d4
p1976
I1
sV\u62d8
p1977
I1
sV\u9761
p1978
I1
sV\u9165
p1979
I1
sV\u70e4
p1980
I2
sV\u5c67
p1981
I2
sV\u656d
p1982
I1
sV\u4ef0
p1983
I2
sV\u97f6
p1984
I1
sV\u6402
p1985
I2
sV\u978b
p1986
I1
sV\u680a
p1987
I1
sV\u548d
p1988
I1
sV\u5e91
p1989
I2
sV\u6597
p1990
I2
sV\u5e26
p1991
I2
sV\u582a
p1992
I1
sV\u55b7
p1993
I1
sV\u9cbd
p1994
I1
sV\u60c5
p1995
I1
sV\u78d5
p1996
I1
sV\u5954
p1997
I1
sV\u6656
p1998
I1
sV\u8fdb
p1999
I2
sV\u605a
p2000
I2
sV\u93e3
p2001
I2
sV\u5ae9
p2002
I2
sV\u8f70
p2003
I1
sV\u6bf3
p2004
I2
sV\u8974
p2005
I1
sV\u5676
p2006
I1
sV\u7ffb
p2007
I1
sV\u8005
p2008
I2
sV\u9e11
p2009
I2
sV\u7994
p2010
I1
sV\u809a
p2011
I2
sV\u57a0
p2012
I1
sV\u94a2
p2013
I1
sV\u51a4
p2014
I1
sV\u9ea6
p2015
I2
sV\u812f
p2016
I1
sV\u9537
p2017
I2
sV\u5239
p2018
I1
sV\u9f3b
p2019
I1
sV\u70ba
p2020
I2
sV\u5c3d
p2021
I2
sV\u87c0
p2022
I2
sV\u6d47
p2023
I1
sV\u4ec6
p2024
I1
sV\u8bc8
p2025
I2
sV\u5cd2
p2026
I2
sV\u4f5b
p2027
I1
sV\u9661
p2028
I2
sV\u9065
p2029
I1
sV\u7be8
p2030
I1
sV\u96f6
p2031
I1
sV\u7279
p2032
I2
sV\u53f8
p2033
I1
sV\u6106
p2034
I1
sV\u9e8f
p2035
I1
sV\u9493
p2036
I2
sV\u6a97
p2037
I2
sV\u4f1a
p2038
I2
sV\u821c
p2039
I2
sV\u8bad
p2040
I2
sV\u87b5
p2041
I1
sV\u6634
p2042
I2
sV\u7c38
p2043
I2
sV\u69c1
p2044
I2
sV\u6956
p2045
I2
sV\u86df
p2046
I1
sV\u655e
p2047
I2
sV\u9ce3
p2048
I1
sV\u7166
p2049
I2
sV\u68eb
p2050
I2
sV\u5976
p2051
I2
sV\u557e
p2052
I1
sV\u9b0d
p2053
I1
sV\u5e0f
p2054
I1
sV\u5413
p2055
I2
sV\u6d19
p2056
I1
sV\u631d
p2057
I1
sV\u58a0
p2058
I2
sV\u7f25
p2059
I1
sV\u7529
p2060
I2
sV\u54a8
p2061
I1
sV\u8e2f
p2062
I1
sV\u903b
p2063
I1
sV\u963f
p2064
I1
sV\u75be
p2065
I1
sV\u88c0
p2066
I1
sV\u6247
p2067
I2
sV\u90d0
p2068
I2
sV\u8d59
p2069
I2
sV\u62dc
p2070
I2
sV\u5c63
p2071
I2
sV\u5267
p2072
I2
sV\u83f2
p2073
I1
sV\u6775
p2074
I2
sV\u5cf8
p2075
I1
sV\u95fe
p2076
I1
sV\u6006
p2077
I2
sV\u998b
p2078
I1
sV\u660a
p2079
I2
sV\u4e1a
p2080
I2
sV\u831c
p2081
I2
sV\u5026
p2082
I2
sV\u6b2c
p2083
I2
sV\u4faf
p2084
I1
sV\u80b1
p2085
I1
sV\u6734
p2086
I2
sV\u51bb
p2087
I2
sV\u68c1
p2088
I1
sV\u8046
p2089
I1
sV\u64c9
p2090
I2
sV\u8bd7
p2091
I1
sV\u54e9
p2092
I1
sV\u8b6c
p2093
I2
sV\u6fef
p2094
I1
sV\u8170
p2095
I1
sV\u8774
p2096
I1
sV\u7bf7
p2097
I1
sV\u77ff
p2098
I2
sV\u8801
p2099
I2
sV\u6f84
p2100
I1
sV\u5f0f
p2101
I2
sV\u9011
p2102
I1
sV\u9615
p2103
I2
sV\u8896
p2104
I2
sV\u9aa2
p2105
I1
sV\u90a6
p2106
I1
sV\u892b
p2107
I2
sV\u6cae
p2108
I2
sV\u5c39
p2109
I2
sV\u7eba
p2110
I2
sV\u6d43
p2111
I1
sV\u8fc4
p2112
I2
sV\u91d0
p2113
I1
sV\u52d2
p2114
I1
sV\u6dd8
p2115
I1
sV\u63dc
p2116
I2
sV\u9e65
p2117
I1
sV\u5367
p2118
I2
sV\u98f6
p2119
I2
sV\u7c79
p2120
I2
sV\u94fe
p2121
I2
sV\u8087
p2122
I2
sV\u9a8b
p2123
I2
sV\u598d
p2124
I1
sV\u7f0e
p2125
I2
sV\u6897
p2126
I2
sV\u8e18
p2127
I1
sV\u629b
p2128
I1
sV\u801c
p2129
I2
sV\u7ea3
p2130
I2
sV\u5326
p2131
I2
sV\u83b1
p2132
I1
sV\u6230
p2133
I2
sV\u6434
p2134
I1
sV\u52bb
p2135
I1
sV\u91bd
p2136
I1
sV\u703c
p2137
I1
sV\u54bf
p2138
I1
sV\u6bc1
p2139
I2
sV\u6dc5
p2140
I1
sV\u8346
p2141
I1
sV\u854a
p2142
I2
sV\u79cd
p2143
I2
sV\u584c
p2144
I1
sV\u73d1
p2145
I1
sV\u5250
p2146
I2
sV\u9152
p2147
I2
sV\u75d5
p2148
I1
sV\u82db
p2149
I1
sV\u6d5a
p2150
I2
sV\u84df
p2151
I2
sV\u675e
p2152
I2
sV\u5be1
p2153
I2
sV\u7962
p2154
I1
sV\u5de5
p2155
I1
sV\u90e7
p2156
I1
sV\u7366
p2157
I1
sV\u756a
p2158
I1
sV\u886c
p2159
I2
sV\u6cef
p2160
I2
sV\u8270
p2161
I1
sV\u66f3
p2162
I2
sV\u78f7
p2163
I1
sV\u74ff
p2164
I2
sV\u6a80
p2165
I1
sV\u4e03
p2166
I1
sV\u6c84
p2167
I1
sV\u8709
p2168
I1
sV\u990d
p2169
I2
sV\u788c
p2170
I2
sV\u5c0f
p2171
I2
sV\u6f19
p2172
I1
sV\u4e98
p2173
I2
sV\u7729
p2174
I2
sV\u8c2f
p2175
I1
sV\u5f39
p2176
I2
sV\u6e43
p2177
I2
sV\u60dc
p2178
I1
sV\u7ae0
p2179
I1
sV\u9769
p2180
I1
sV\u8fee
p2181
I1
sV\u6371
p2182
I1
sV\u7f79
p2183
I1
sV\u717d
p2184
I1
sV\u97fe
p2185
I1
sV\u8f83
p2186
I2
sV\u6206
p2187
I2
sV\u640a
p2188
I1
sV\u659f
p2189
I1
sV\u88ad
p2190
I1
sV\u82b1
p2191
I1
sV\u9eb9
p2192
I1
sV\u7f38
p2193
I1
sV\u53bb
p2194
I2
sV\u6cc5
p2195
I1
sV\u9052
p2196
I1
sV\u4ed9
p2197
I1
sV\u85df
p2198
I2
sV\u665e
p2199
I1
sV\u5ae1
p2200
I1
sV\u5ce5
p2201
I1
sV\u6beb
p2202
I1
sV\u67f3
p2203
I2
sV\u8574
p2204
I2
sV\u5c7a
p2205
I2
sV\u8c05
p2206
I2
sV\u601d
p2207
I1
sV\u5ba0
p2208
I2
sV\u98a2
p2209
I2
sV\u8d2f
p2210
I2
sV\u60b2
p2211
I1
sV\u8bc0
p2212
I1
sV\u8dc4
p2213
I1
sV\u7b4b
p2214
I1
sV\u8e59
p2215
I2
sV\u7be0
p2216
I2
sV\u9669
p2217
I2
sV\u96fe
p2218
I2
sV\u6f02
p2219
I2
sV\u9c8b
p2220
I2
sV\u9a8f
p2221
I2
sV\u5591
p2222
I1
sV\u9093
p2223
I2
sV\u629f
p2224
I1
sV\u78a3
p2225
I1
sV\u5f22
p2226
I1
sV\u532a
p2227
I2
sV\u6234
p2228
I2
sV\u5eb7
p2229
I1
sV\u7838
p2230
I1
sV\u54bb
p2231
I1
sV\u763c
p2232
I2
sV\u52bf
p2233
I2
sV\u6bc5
p2234
I2
sV\u5e4c
p2235
I2
sS'<eos>'
p2236
I0
sV\u5450
p2237
I2
sV\u9752
p2238
I1
sV\u5254
p2239
I1
sV\u82df
p2240
I2
sV\u5de1
p2241
I1
sV\u7f62
p2242
I2
sV\u5be5
p2243
I1
sV\u7566
p2244
I1
sV\u6ceb
p2245
I2
sV\u8e6c
p2246
I1
sV\u60f3
p2247
I2
sV\u7ef7
p2248
I1
sV\u9878
p2249
I1
sV\u74fb
p2250
I1
sV\u5b7a
p2251
I1
sV\u6a84
p2252
I1
sV\u8109
p2253
I2
sV\u9f0d
p2254
I1
sV\u9511
p2255
I1
sV\u671d
p2256
I1
sV\u7b25
p2257
I2
sV\u50a8
p2258
I2
sV\u69ae
p2259
I1
sV\u8033
p2260
I2
sV\u67b2
p2261
I2
sV\u9e37
p2262
I2
sV\u5939
p2263
I1
sV\u6843
p2264
I1
sV\u57d2
p2265
I2
sV\u68d8
p2266
I1
sV\u66dc
p2267
I2
sV\u7ce0
p2268
I1
sV\u9169
p2269
I2
sV\u6f6d
p2270
I1
sV\u4eec
p2271
I1
sV\u777d
p2272
I1
sV\u8983
p2273
I1
sV\u620a
p2274
I2
sV\u659b
p2275
I1
sV\u871c
p2276
I2
sV\u77a7
p2277
I1
sV\u5426
p2278
I2
sV\u5fb7
p2279
I1
sV\u55bb
p2280
I2
sV\u96bd
p2281
I2
sV\u773c
p2282
I2
sV\u53bf
p2283
I2
sV\u8446
p2284
I2
sV\u7ecd
p2285
I2
sV\u5550
p2286
I2
sV\u83df
p2287
I1
sV\u5ce1
p2288
I1
sV\u97e7
p2289
I2
sV\u6deb
p2290
I1
sV\u8f6c
p2291
I2
sV\u6bef
p2292
I2
sV\u5a7a
p2293
I2
sV\u8c01
p2294
I1
sV\u6b84
p2295
I2
sV\u7f8c
p2296
I1
sV\u5ba4
p2297
I2
sV\u94a6
p2298
I1
sV\u8d2b
p2299
I1
sV\u4e2d
p2300
I1
sV\u9f37
p2301
I1
sV\u953b
p2302
I2
sV\u8bc4
p2303
I1
sV\u7b4f
p2304
I1
sV\u4f57
p2305
I1
sV\u8859
p2306
I1
sV\u67dc
p2307
I2
sV\u9afa
p2308
I2
sV\u767d
p2309
I1
sV\u8487
p2310
I2
sV\u9e8b
p2311
I1
sV\u5195
p2312
I2
sV\u609f
p2313
I2
sV\u9e20
p2314
I1
sV\u7aa3
p2315
I1
sV\u74a7
p2316
I2
sV\u4eab
p2317
I2
sV\u5cb7
p2318
I1
sV\u9bb9
p2319
I1
sV\u743c
p2320
I1
sV\u63c9
p2321
I1
sV\u814a
p2322
I2
sV\u9552
p2323
I2
sV\u71d5
p2324
I2
sV\u86db
p2325
I1
sV\u695a
p2326
I2
sV\u635e
p2327
I1
sV\u59e5
p2328
I2
sV\u7766
p2329
I2
sV\u53e9
p2330
I2
sV\u6eeb
p2331
I2
sV\u62f3
p2332
I1
sV\u9a78
p2333
I2
sV\u8309
p2334
I2
sV\u5213
p2335
I1
sV\u8f96
p2336
I1
sV\u839e
p2337
I2
sV\u5ea0
p2338
I1
sV\u97a6
p2339
I1
sV\u7329
p2340
I1
sV\u52a8
p2341
I2
sV\u91aa
p2342
I1
sV\u8233
p2343
I1
sV\u963b
p2344
I2
sV\u79ba
p2345
I1
sV\u6447
p2346
I1
sV\u9ccc
p2347
I1
sV\u7253
p2348
I2
sV\u855d
p2349
I1
sV\u7ee0
p2350
I2
sV\u9965
p2351
I1
sV\u72e8
p2352
I1
sV\u8bee
p2353
I2
sV\u6175
p2354
I1
sV\u7b79
p2355
I1
sV\u54fc
p2356
I1
sV\u8587
p2357
I1
sV\u6606
p2358
I1
sV\u600a
p2359
I1
sV\u7a0e
p2360
I2
sV\u4e16
p2361
I2
sV\u9f20
p2362
I2
sV\u5c22
p2363
I1
sV\u502a
p2364
I1
sV\u86b1
p2365
I2
sV\u5db7
p2366
I1
sV\u9ab9
p2367
I1
sV\u6ec1
p2368
I1
sV\u8646
p2369
I1
sV\u62c9
p2370
I1
sV\u804a
p2371
I1
sV\u5d4c
p2372
I2
sV\u9a4e
p2373
I1
sV\u76d1
p2374
I1
sV\u5750
p2375
I2
sV\u5154
p2376
I2
sV\u8dd7
p2377
I1
sV\u6e56
p2378
I1
sV\u625e
p2379
I2
sV\u8174
p2380
I1
sV\u5e76
p2381
I2
sV\u77fb
p2382
I1
sV\u6984
p2383
I2
sV\u6388
p2384
I2
sV\u5f0b
p2385
I2
sV\u590f
p2386
I2
sV\u9611
p2387
I1
sV\u7194
p2388
I1
sV\u9ca2
p2389
I1
sV\u7825
p2390
I2
sV\u59a4
p2391
I1
sV\u53a8
p2392
I1
sV\u90aa
p2393
I1
sV\u7eb6
p2394
I1
sV\u543d
p2395
I1
sV\u6b43
p2396
I2
sV\u89c4
p2397
I1
sV\u9e61
p2398
I1
sV\u7fe0
p2399
I2
sV\u5b63
p2400
I2
sV\u79e4
p2401
I2
sV\u5567
p2402
I1
sV\u7a79
p2403
I1
sV\u5bf8
p2404
I2
sV\u747d
p2405
I1
sV\u9a87
p2406
I2
sV\u808b
p2407
I1
sV\u7f0a
p2408
I1
sV\u789b
p2409
I2
sV\u8c28
p2410
I2
sV\u50ab
p2411
I2
sV\u4f2a
p2412
I2
sV\u722c
p2413
I1
sV\u5cb3
p2414
I2
sV\u8bbd
p2415
I2
sV\u4ebf
p2416
I2
sV\u5c48
p2417
I1
sV\u4e54
p2418
I1
sV\u92d7
p2419
I1
sV\u7156
p2420
I2
sV\u98db
p2421
I1
sV\u5bdd
p2422
I2
sV\u9edf
p2423
I1
sV\u6362
p2424
I2
sV\u70eb
p2425
I2
sV\u556e
p2426
I2
sV\u7080
p2427
I1
sV\u5403
p2428
I1
sV\u9705
p2429
I2
sV\u7684
p2430
I1
sV\u5a07
p2431
I1
sV\u9196
p2432
I2
sV\u979a
p2433
I2
sV\u6d29
p2434
I2
sV\u75ae
p2435
I1
sV\u5931
p2436
I1
sV\u8237
p2437
I1
sV\u53c2
p2438
I1
sV\u96c4
p2439
I1
sV\u59c6
p2440
I2
sV\u604b
p2441
I2
sV\u664f
p2442
I2
sV\u74d8
p2443
I2
sV\u60e0
p2444
I2
sV\u6ce8
p2445
I2
sV\u736d
p2446
I2
sV\u95ee
p2447
I2
sV\u58f0
p2448
I1
sV\u87fa
p2449
I2
sV\u818b
p2450
I1
sV\u4e95
p2451
I2
sV\u5016
p2452
I2
sV\u8d28
p2453
I2
sV\u4e2a
p2454
I2
sV\u732c
p2455
I2
sV\u7f34
p2456
I2
sV\u84b9
p2457
I1
sV\u6538
p2458
I1
sV\u4fbf
p2459
I2
sV\u70c1
p2460
I2
sV\u5140
p2461
I2
sV\u76c5
p2462
I1
sV\u9e4a
p2463
I2
sV\u62cd
p2464
I1
sV\u6ed5
p2465
I1
sV\u7c5e
p2466
I2
sV\u6262
p2467
I2
sV\u6866
p2468
I2
sV\u9970
p2469
I2
sV\u9001
p2470
I2
sV\u9605
p2471
I2
sV\u820d
p2472
I2
sV\u638c
p2473
I2
sV\u5598
p2474
I2
sV\u5b9c
p2475
I1
sV\u6021
p2476
I1
sV\u6625
p2477
I1
sV\u6cbe
p2478
I1
sV\u7b47
p2479
I1
sV\u5eca
p2480
I1
sV\u83cc
p2481
I1
sV\u674f
p2482
I2
sV\u89d0
p2483
I2
sV\u6d53
p2484
I1
sV\u8fd4
p2485
I2
sV\u5357
p2486
I1
sV\u75d8
p2487
I2
sV\u8c69
p2488
I1
sV\u53ec
p2489
I2
sV\u94ee
p2490
I1
sV\u80f6
p2491
I1
sV\u6479
p2492
I1
sV\u9887
p2493
I2
sV\u5f89
p2494
I1
sV\u828b
p2495
I2
sV\u7d0a
p2496
I2
sV\u6912
p2497
I1
sV\u5316
p2498
I2
sV\u7c9f
p2499
I2
sV\u8220
p2500
I1
sV\u8424
p2501
I1
sV\u68a7
p2502
I1
sV\u52ab
p2503
I1
sV\u91ad
p2504
I1
sV\u5eb3
p2505
I2
sV\u7c34
p2506
I2
sV\u683c
p2507
I1
sV\u9142
p2508
I1
sV\u75c5
p2509
I2
sV\u874e
p2510
I1
sV\u90d7
p2511
I1
sV\u57d9
p2512
I1
sV\u59dd
p2513
I1
sV\u6162
p2514
I2
sV\u6b66
p2515
I2
sV\u4fe9
p2516
I2
sV\u6d6a
p2517
I2
sV\u74ef
p2518
I1
sV\u9a70
p2519
I1
sV\u7ef3
p2520
I1
sV\u4f7e
p2521
I2
sV\u7280
p2522
I1
sV\u9505
p2523
I1
sV\u5807
p2524
I2
sV\u810d
p2525
I2
sV\u608c
p2526
I2
sV\u6a90
p2527
I1
sV\u4e13
p2528
I1
sV\u6c94
p2529
I2
sV\u6321
p2530
I2
sV\u6525
p2531
I2
sV\u6f29
p2532
I1
sV\u4ea8
p2533
I1
sV\u9e33
p2534
I1
sV\u8c3f
p2535
I1
sV\u94c4
p2536
I2
sV\u5bc6
p2537
I2
sV\u624b
p2538
I2
sV\u80cc
p2539
I2
sV\u644f
p2540
I1
sV\u6e53
p2541
I1
sV\u9759
p2542
I2
sV\u76d8
p2543
I1
sV\u5c5f
p2544
I2
sV\u8361
p2545
I2
sV\u8f69
p2546
I1
sV\u6ee8
p2547
I1
sV\u7b71
p2548
I2
sV\u858f
p2549
I2
sV\u660e
p2550
I1
sV\u8f93
p2551
I1
sV\u5216
p2552
I2
sV\u67a3
p2553
I2
sV\u9cb5
p2554
I1
sV\u72c1
p2555
I2
sV\u9042
p2556
I2
sV\u5544
p2557
I1
sV\u7ec9
p2558
I2
sV\u864e
p2559
I2
sV\u8852
p2560
I2
sV\u6cd5
p2561
I2
sV\u7256
p2562
I2
sV\u745a
p2563
I1
sV\u9ddf
p2564
I1
sV\u6062
p2565
I1
sV\u6a66
p2566
I1
sV\u6c6a
p2567
I1
sV\u916c
p2568
I1
sV\u7ff3
p2569
I2
sV\u4e7e
p2570
I1
sV\u5703
p2571
I2
sV\u5907
p2572
I2
sV\u800d
p2573
I2
sV\u8c15
p2574
I2
sV\u6d94
p2575
I1
sV\u781d
p2576
I1
sV\u6221
p2577
I1
sV\u80a2
p2578
I1
sV\u6e29
p2579
I1
sV\u4fa8
p2580
I1
sV\u502d
p2581
I1
sV\u952f
p2582
I2
sV\u76ae
p2583
I1
sV\u5a31
p2584
I1
sV\u8d3f
p2585
I2
sV\u7947
p2586
I1
sV\u634b
p2587
I2
sV\u654f
p2588
I2
sV\u8bd0
p2589
I2
sV\u5b5b
p2590
I2
sV\u706d
p2591
I2
sV\u5bf0
p2592
I1
sV\u5df4
p2593
I1
sV\u6679
p2594
I2
sV\u9083
p2595
I2
sV\u5385
p2596
I1
sV\u9e87
p2597
I1
sV\u848b
p2598
I2
sV\u7a9f
p2599
I1
sV\u60a3
p2600
I2
sV\u54ab
p2601
I2
sV\u97ad
p2602
I1
sV\u9db1
p2603
I1
sV\u8fbd
p2604
I1
sV\u6e3c
p2605
I2
sV\u5440
p2606
I1
sV\u79c9
p2607
I2
sV\u6dd1
p2608
I1
sV\u6bd5
p2609
I2
sV\u5fdd
p2610
I2
sV\u795e
p2611
I1
sV\u6d66
p2612
I2
sV\u6b6a
p2613
I1
sV\u966c
p2614
I1
sV\u72ef
p2615
I2
sV\u516e
p2616
I1
sV\u9a74
p2617
I1
sV\u66f7
p2618
I1
sV\u6cfb
p2619
I2
sV\u9501
p2620
I2
sV\u7480
p2621
I2
sV\u7284
p2622
I1
sV\u9909
p2623
I2
sV\u870d
p2624
I1
sV\u668c
p2625
I1
sV\u6c90
p2626
I2
sV\u7119
p2627
I2
sV\u5098
p2628
I2
sV\u7f1d
p2629
I2
sV\u5e9c
p2630
I2
sV\u6325
p2631
I1
sV\u8baa
p2632
I2
sV\u572d
p2633
I1
sV\u5d31
p2634
I2
sV\u9833
p2635
I1
sV\u7fb2
p2636
I1
sV\u63ba
p2637
I2
sV\u4f3d
p2638
I1
sV\u7e47
p2639
I1
sV\u6853
p2640
I1
sV\u70d8
p2641
I1
sV\u7edc
p2642
I2
sV\u8561
p2643
I1
sV\u8365
p2644
I1
sV\u68e8
p2645
I2
sV\u5cf0
p2646
I1
sV\u7b75
p2647
I1
sV\u5889
p2648
I1
sV\u600e
p2649
I2
sV\u521a
p2650
I1
sV\u581e
p2651
I1
sV\u6fa7
p2652
I2
sV\u5540
p2653
I1
sV\u9642
p2654
I1
sV\u5948
p2655
I2
sV\u8e52
p2656
I1
sV\u7456
p2657
I2
sV\u81e3
p2658
I1
sV\u75eb
p2659
I1
sV\u6a6a
p2660
I2
sV\u5e72
p2661
I2
sV\u67f7
p2662
I2
sV\u6dfb
p2663
I1
sV\u8f7c
p2664
I2
sV\u7384
p2665
I1
sV\u678c
p2666
I1
sV\u8c11
p2667
I2
sV\u9496
p2668
I1
sV\u5f9c
p2669
I1
sV\u6225
p2670
I2
sV\u6829
p2671
I2
sV\u70ae
p2672
I2
sV\u5c31
p2673
I2
sV\u7eb2
p2674
I1
sV\u8737
p2675
I1
sV\u8d3b
p2676
I1
sV\u4e3d
p2677
I2
sV\u634f
p2678
I1
sV\u8bd4
p2679
I2
sV\u5757
p2680
I2
sV\u5b5f
p2681
I2
sV\u8461
p2682
I1
sV\u65e0
p2683
I1
sV\u8869
p2684
I2
sV\u69e8
p2685
I2
sV\u6079
p2686
I1
sV\u88fe
p2687
I1
sV\u5185
p2688
I2
sV\u7f06
p2689
I2
sV\u5b89
p2690
I1
sV\u868b
p2691
I2
sV\u630e
p2692
I2
sV\u4f91
p2693
I2
sV\u8a93
p2694
I2
sV\u6d12
p2695
I2
sV\u5716
p2696
I1
sV\u7e9b
p2697
I2
sV\u789f
p2698
I1
sV\u6ca7
p2699
I1
sV\u4f26
p2700
I1
sV\u742c
p2701
I2
sV\u5ab3
p2702
I1
sV\u7834
p2703
I2
sV\u83b9
p2704
I1
sV\u5640
p2705
I2
sV\u9542
p2706
I2
sV\u6fd1
p2707
I2
sV\u4e50
p2708
I2
sV\u94d7
p2709
I1
sV\u53d9
p2710
I2
sV\u9edb
p2711
I2
sV\u5ddd
p2712
I1
sV\u98df
p2713
I1
sV\u82e3
p2714
I2
sV\u6562
p2715
I2
sV\u6f66
p2716
I2
sV\u536e
p2717
I1
sV\u9e70
p2718
I1
sV\u9701
p2719
I2
sV\u5203
p2720
I2
sV\u7a88
p2721
I2
sV\u6e90
p2722
I1
sV\u5f31
p2723
I2
sV\u67b6
p2724
I2
sV\u61ba
p2725
I2
sV\u96c0
p2726
I2
sV\u90c4
p2727
I2
sV\u5fc6
p2728
I2
sV\u664b
p2729
I2
sV\u59ca
p2730
I2
sV\u88d4
p2731
I2
sV\u5457
p2732
I1
sV\u5e5b
p2733
I2
sV\u7cdc
p2734
I1
sV\u8165
p2735
I1
sV\u8bfe
p2736
I2
sV\u5085
p2737
I2
sV\u7e06
p2738
I1
sV\u818f
p2739
I1
sV\u620e
p2740
I1
sV\u4e91
p2741
I1
sV\u7597
p2742
I1
sV\u501a
p2743
I2
sV\u63a3
p2744
I2
sV\u6da7
p2745
I2
sV\u4e26
p2746
I2
sV\u57ab
p2747
I2
sV\u752c
p2748
I2
sV\u51af
p2749
I1
sV\u7f30
p2750
I1
sV\u5bb3
p2751
I2
sV\u7934
p2752
I1
sV\u82b9
p2753
I1
sV\u6d3c
p2754
I1
sV\u5740
p2755
I2
sV\u5144
p2756
I1
sV\u9e46
p2757
I2
sV\u64cd
p2758
I1
sV\u824e
p2759
I1
sV\u6ed1
p2760
I1
sV\u4f50
p2761
I2
sV\u68d5
p2762
I1
sV\u7656
p2763
I2
sV\u8de7
p2764
I1
sV\u77eb
p2765
I2
sV\u956c
p2766
I2
sV\u9974
p2767
I1
sV\u65f7
p2768
I2
sV\u8378
p2769
I1
sV\u69ff
p2770
I2
sV\u9601
p2771
I1
sV\u9005
p2772
I2
sV\u7184
p2773
I1
sV\u5d07
p2774
I1
sV\u840d
p2775
I1
sV\u6994
p2776
I1
sV\u5398
p2777
I1
sV\u9a9e
p2778
I1
sV\u6025
p2779
I1
sV\u542d
p2780
I1
sV\u5e31
p2781
I1
sV\u7cb2
p2782
I2
sV\u5835
p2783
I2
sV\u8537
p2784
I1
sV\u54c2
p2785
I2
sV\u9bc8
p2786
I1
sV\u58ca
p2787
I2
sV\u8fd0
p2788
I2
sV\u7ddc
p2789
I1
sV\u6279
p2790
I1
sV\u6c7d
p2791
I2
sV\u5981
p2792
I2
sV\u5f85
p2793
I2
sV\u5589
p2794
I1
sV\u888b
p2795
I2
sV\u770a
p2796
I2
sV\u7a97
p2797
I1
sV\u5916
p2798
I2
sV\u6ca3
p2799
I1
sV\u8428
p2800
I2
sV\u5eaf
p2801
I1
sV\u7030
p2802
I1
sV\u54b3
p2803
I1
sV\u7634
p2804
I2
sV\u6c38
p2805
I2
sV\u83bd
p2806
I2
sV\u79c1
p2807
I1
sV\u9b42
p2808
I1
sV\u7fc5
p2809
I2
sV\u5e44
p2810
I2
sV\u9146
p2811
I1
sV\u5448
p2812
I1
sV\u6bcd
p2813
I2
sV\u8d4e
p2814
I1
sV\u61d1
p2815
I2
sV\u8352
p2816
I1
sV\u7956
p2817
I2
sV\u90db
p2818
I1
sV\u7f5a
p2819
I1
sV\u6b62
p2820
I2
sV\u676a
p2821
I2
sV\u9a6c
p2822
I2
sV\u7eef
p2823
I1
sV\u9070
p2824
I2
sV\u8c78
p2825
I2
sV\u66ff
p2826
I2
sV\u5207
p2827
I2
sV\u9509
p2828
I2
sV\u7488
p2829
I1
sV\u8111
p2830
I2
sV\u8715
p2831
I2
sV\u9996
p2832
I2
sV\u5c98
p2833
I2
sV\u9f9a
p2834
I1
sV\u731d
p2835
I2
sV\u8ba2
p2836
I2
sV\u4ea4
p2837
I1
sV\u5b2d
p2838
I2
sV\u9e2f
p2839
I1
sV\u73b2
p2840
I1
sV\u803b
p2841
I2
sV\u65be
p2842
I2
sV\u5bc2
p2843
I2
sV\u9ec4
p2844
I1
sV\u7247
p2845
I2
sV\u51c6
p2846
I2
sV\u5a57
p2847
I1
sV\u68e0
p2848
I1
sV\u6ee4
p2849
I2
sV\u50f0
p2850
I1
sV\u56f4
p2851
I1
sV\u5881
p2852
I2
sV\u8f8f
p2853
I2
sV\u6c0e
p2854
I1
sV\u6212
p2855
I2
sV\u7b97
p2856
I2
sV\u719b
p2857
I1
sV\u5e1a
p2858
I2
sV\u541e
p2859
I1
sV\u6da3
p2860
I2
sV\u63a7
p2861
I2
sV\u59ab
p2862
I1
sV\u7b2c
p2863
I2
sV\u5faf
p2864
I1
sV\u90b1
p2865
I1
sV\u7130
p2866
I2
sV\u55b3
p2867
I1
sV\u82bd
p2868
I1
sV\u633c
p2869
I1
sV\u78c1
p2870
I1
sV\u7ec5
p2871
I1
sV\u60d1
p2872
I2
sV\u8252
p2873
I2
sV\u5cd9
p2874
I2
sV\u745e
p2875
I2
sV\u8de3
p2876
I2
sV\u4ee5
p2877
I2
sV\u79eb
p2878
I1
sV\u5272
p2879
I1
sV\u9774
p2880
I1
sV\u837c
p2881
I1
sV\u67ff
p2882
I2
sV\u7980
p2883
I2
sV\u5d03
p2884
I1
sV\u4f0f
p2885
I1
sV\u9896
p2886
I2
sV\u9e9a
p2887
I1
sV\u949e
p2888
I1
sV\u6821
p2889
I2
sV\u6e25
p2890
I2
sV\u86aa
p2891
I2
sV\u9f2f
p2892
I1
sV\u7cae
p2893
I1
sV\u6eba
p2894
I2
sV\u873f
p2895
I1
sV\u7d43
p2896
I1
sV\u5ac2
p2897
I2
sV\u56ca
p2898
I1
sV\u8bcc
p2899
I1
sV\u5b57
p2900
I2
sV\u575f
p2901
I1
sV\u8861
p2902
I1
sV\u69e0
p2903
I1
sV\u8469
p2904
I1
sV\u65e8
p2905
I2
sV\u51f0
p2906
I1
sV\u57f4
p2907
I1
sV\u6c79
p2908
I1
sV\u5b81
p2909
I1
sV\u8693
p2910
I2
sV\u7897
p2911
I2
sV\u5d1a
p2912
I1
sV\u571e
p2913
I1
sV\u8c24
p2914
I2
sV\u7230
p2915
I1
sV\u7434
p2916
I1
sV\u8fb9
p2917
I1
sV\u6e38
p2918
I1
sV\u603c
p2919
I2
sV\u7bc1
p2920
I1
sV\u5a40
p2921
I1
sV\u954a
p2922
I2
sV\u8152
p2923
I1
sV\u98d7
p2924
I1
sV\u7b56
p2925
I2
sV\u5fd9
p2926
I1
sV\u51dd
p2927
I1
sV\u80e7
p2928
I1
sV\u64ff
p2929
I1
sV\u5e03
p2930
I2
sV\u7688
p2931
I1
sV\u8311
p2932
I2
sV\u7f19
p2933
I2
sV\u509c
p2934
I1
sV\u979e
p2935
I2
sV\u6b21
p2936
I2
sV\u6d25
p2937
I1
sV\u85aa
p2938
I1
sV\u592d
p2939
I1
sV\u9633
p2940
I1
sV\u823b
p2941
I1
sV\u9ac0
p2942
I2
sV\u9cc4
p2943
I2
sV\u53c6
p2944
I2
sV\u4fce
p2945
I2
sV\u6653
p2946
I2
sV\u7ed8
p2947
I2
sV\u915d
p2948
I2
sV\u70dc
p2949
I2
sV\u66e8
p2950
I1
sV\u796d
p2951
I2
sV\u58ec
p2952
I1
sV\u52f0
p2953
I1
sV\u8dfa
p2954
I2
sV\u87fe
p2955
I1
sV\u9f83
p2956
I2
sV\u7802
p2957
I1
sV\u9187
p2958
I1
sV\u7206
p2959
I2
sV\u740a
p2960
I1
sV\u6e0e
p2961
I1
sV\u8793
p2962
I1
sV\u6012
p2963
I2
sV\u739b
p2964
I2
sV\u5c1a
p2965
I2
sV\u911c
p2966
I1
sV\u759f
p2967
I2
sV\u8d24
p2968
I1
sV\u61a7
p2969
I1
sV\u5bab
p2970
I1
sV\u94b5
p2971
I1
sV\u7ac1
p2972
I2
sV\u5b40
p2973
I1
sV\u7cc5
p2974
I1
sV\u68cd
p2975
I2
sV\u8052
p2976
I1
sV\u5ed9
p2977
I2
sV\u6862
p2978
I1
sV\u81e7
p2979
I1
sV\u996c
p2980
I2
sV\u77f3
p2981
I1
sV\u8f78
p2982
I2
sV\u7b80
p2983
I2
sV\u5f03
p2984
I2
sV\u9c05
p2985
I1
sV\u9a96
p2986
I1
sV\u5f98
p2987
I1
sV\u519c
p2988
I1
sV\u6a21
p2989
I1
sV\u82a6
p2990
I1
sV\u84aa
p2991
I2
sV\u7eae
p2992
I1
sV\u5435
p2993
I2
sV\u8937
p2994
I1
sV\u4e39
p2995
I1
sV\u66be
p2996
I1
sV\u89cc
p2997
I1
sV\u6d4f
p2998
I1
sV\u4ece
p2999
I1
sV\u6753
p3000
I1
sV\u5957
p3001
I2
sV\u9e59
p3002
I1
sV\u7fd8
p3003
I2
sV\u4f63
p3004
I1
sV\u6de4
p3005
I1
sV\u59ec
p3006
I1
sV\u53f0
p3007
I1
sV\u4ff8
p3008
I2
sV\u607d
p3009
I2
sV\u86fe
p3010
I1
sV\u9883
p3011
I1
sV\u7f02
p3012
I2
sV\u5b85
p3013
I1
sV\u5189
p3014
I2
sV\u730a
p3015
I1
sV\u4f8d
p3016
I2
sV\u690e
p3017
I1
sV\u8093
p3018
I1
sV\u5d16
p3019
I1
sV\u961c
p3020
I2
sV\u729f
p3021
I2
sV\u8c20
p3022
I2
sV\u66a7
p3023
I2
sV\u8028
p3024
I2
sV\u5cab
p3025
I2
sV\u7430
p3026
I2
sV\u6838
p3027
I1
sV\u87bd
p3028
I1
sV\u663c
p3029
I2
sV\u5c40
p3030
I1
sV\u9546
p3031
I2
sV\u5048
p3032
I2
sV\u4e4c
p3033
I1
sV\u94db
p3034
I1
sV\u7b5a
p3035
I2
sV\u715e
p3036
I1
sV\u6f62
p3037
I1
sV\u6566
p3038
I1
sV\u9e6c
p3039
I2
sV\u7aef
p3040
I1
sV\u9274
p3041
I2
sV\u62ff
p3042
I1
sV\u5803
p3043
I1
sV\u7a84
p3044
I2
sV\u8511
p3045
I2
sV\u8315
p3046
I1
sV\u6294
p3047
I1
sV\u83aa
p3048
I1
sV\u5f2d
p3049
I2
sV\u5531
p3050
I2
sV\u61be
p3051
I2
sV\u53ca
p3052
I1
sV\u84d0
p3053
I2
sV\u6053
p3054
I1
sV\u82d4
p3055
I1
sV\u8d61
p3056
I2
sV\u6ce0
p3057
I1
sV\u60e8
p3058
I2
sV\u6979
p3059
I1
sV\u8bfa
p3060
I2
sV\u81fe
p3061
I1
sV\u5c81
p3062
I2
sV\u7406
p3063
I2
sV\u8d8b
p3064
I1
sV\u680e
p3065
I2
sV\u6612
p3066
I1
sV\u5c16
p3067
I1
sV\u9918
p3068
I1
sV\u971c
p3069
I1
sV\u4e22
p3070
I1
sV\u7f2c
p3071
I1
sV\u94b1
p3072
I1
sV\u7530
p3073
I1
sV\u51b3
p3074
I1
sV\u7334
p3075
I1
sV\u7cc1
p3076
I2
sV\u9e42
p3077
I1
sV\u5148
p3078
I1
sV\u884e
p3079
I2
sV\u705e
p3080
I2
sV\u89e3
p3081
I2
sV\u626a
p3082
I1
sV\u9570
p3083
I1
sV\u65fb
p3084
I1
sV\u877c
p3085
I1
sV\u7d80
p3086
I1
sV\u9009
p3087
I2
sV\u6f8c
p3088
I1
sV\u6590
p3089
I2
sV\u9a9a
p3090
I1
sV\u761d
p3091
I1
sV\u5e2d
p3092
I1
sV\u9b2f
p3093
I2
sV\u853b
p3094
I2
sV\u7747
p3095
I2
sV\u6d4b
p3096
I2
sV\u85d0
p3097
I2
sV\u5f57
p3098
I2
sV\u79d8
p3099
I2
sV\u77dc
p3100
I1
sV\u8c61
p3101
I2
sV\u8069
p3102
I2
sV\u7275
p3103
I1
sV\u5f81
p3104
I1
sV\u5389
p3105
I2
sV\u6512
p3106
I2
sV\u7c97
p3107
I1
sV\u769b
p3108
I2
sV\u591a
p3109
I1
sV\u8e20
p3110
I2
sV\u52b3
p3111
I1
sV\u8bb9
p3112
I1
sV\u7fc1
p3113
I1
sV\u73c9
p3114
I1
sV\u914a
p3115
I1
sV\u67d1
p3116
I1
sV\u795a
p3117
I2
sV\u4fe1
p3118
I2
sV\u7eeb
p3119
I1
sV\u9074
p3120
I1
sV\u6cf7
p3121
I1
sV\u5a03
p3122
I1
sV\u4e0b
p3123
I2
sV\u6c8c
p3124
I2
sV\u8711
p3125
I2
sV\u6094
p3126
I2
sV\u7b19
p3127
I1
sV\u5d2d
p3128
I2
sV\u75b2
p3129
I1
sV\u8c37
p3130
I2
sV\u6fb6
p3131
I1
sV\u803f
p3132
I2
sV\u63be
p3133
I2
sV\u5dc2
p3134
I1
sV\u6253
p3135
I2
sV\u955d
p3136
I1
sV\u74dc
p3137
I1
sV\u8369
p3138
I2
sV\u62e8
p3139
I1
sV\u56f0
p3140
I2
sV\u95f2
p3141
I1
sV\u6b79
p3142
I2
sV\u5885
p3143
I2
sV\u5289
p3144
I1
sV\u8f8b
p3145
I2
sV\u8393
p3146
I1
sV\u5e16
p3147
I1
sV\u9b18
p3148
I1
sV\u951c
p3149
I1
sV\u719f
p3150
I1
sV\u65a7
p3151
I2
sV\u8328
p3152
I1
sV\u9cad
p3153
I1
sV\u7d2c
p3154
I1
sV\u59af
p3155
I1
sV\u90b5
p3156
I2
sV\u6b38
p3157
I1
sV\u7ec1
p3158
I2
sV\u5f40
p3159
I2
sV\u78c5
p3160
I2
sV\u5944
p3161
I2
sV\u9646
p3162
I2
sV\u5348
p3163
I2
sV\u60d5
p3164
I2
sV\u7e56
p3165
I2
sV\u97db
p3166
I2
sV\u8be3
p3167
I2
sV\u6666
p3168
I2
sV\u606a
p3169
I2
sV\u79ef
p3170
I1
sV\u9174
p3171
I1
sV\u6df7
p3172
I2
sV\u61ff
p3173
I2
sV\u7984
p3174
I2
sV\u5507
p3175
I1
sV\u8c0d
p3176
I1
sV\u6d8c
p3177
I2
sV\u8611
p3178
I1
sV\u6790
p3179
I1
sV\u8015
p3180
I1
sV\u6194
p3181
I1
sV\u5b98
p3182
I1
sV\u559c
p3183
I2
sV\u6e21
p3184
I2
sV\u4fa0
p3185
I1
sV\u80aa
p3186
I1
sV\u5631
p3187
I2
sV\u8d37
p3188
I2
sV\u6eb6
p3189
I1
sV\u873b
p3190
I1
sV\u6f4b
p3191
I2
sV\u8dcc
p3192
I1
sV\u7bd8
p3193
I1
sV\u575b
p3194
I1
sV\u6fe0
p3195
I1
sV\u8865
p3196
I2
sV\u94f2
p3197
I2
sV\u7075
p3198
I1
sV\u6a79
p3199
I2
sV\u647d
p3200
I1
sV\u82fe
p3201
I2
sV\u8302
p3202
I2
sV\u5e14
p3203
I2
sV\u8297
p3204
I1
sV\u6418
p3205
I1
sV\u7020
p3206
I1
sV\u7624
p3207
I1
sV\u9aa7
p3208
I1
sV\u822c
p3209
I1
sV\u69b1
p3210
I1
sV\u75b9
p3211
I2
sV\u573a
p3212
I2
sV\u6342
p3213
I2
sV\u754e
p3214
I2
sV\u7b52
p3215
I2
sV\u62d7
p3216
I2
sV\u6edf
p3217
I2
sV\u8d5e
p3218
I2
sV\u74e3
p3219
I2
sV\u5664
p3220
I2
sV\u80eb
p3221
I2
sV\u626c
p3222
I1
sV\u6101
p3223
I1
sV\u6705
p3224
I2
sV\u9890
p3225
I1
sV\u7f15
p3226
I2
sV\u679a
p3227
I1
sV\u73a2
p3228
I1
sV\u662f
p3229
I2
sV\u85ae
p3230
I2
sV\u8bb2
p3231
I2
sV\u7237
p3232
I1
sV\u54b8
p3233
I1
sV\u783b
p3234
I1
sV\u534d
p3235
I2
sV\u5951
p3236
I2
sV\u78d0
p3237
I1
sV\u5f55
p3238
I2
sV\u6559
p3239
I2
sV\u7765
p3240
I2
sV\u836d
p3241
I1
sV\u5e7f
p3242
I2
sV\u8202
p3243
I1
sV\u6b87
p3244
I1
sV\u8e0a
p3245
I2
sV\u5910
p3246
I2
sV\u6518
p3247
I2
sV\u8f9f
p3248
I2
sV\u5ca9
p3249
I1
sV\u832c
p3250
I1
sV\u68b1
p3251
I2
sV\u8930
p3252
I1
sV\u9538
p3253
I1
sV\u9b3c
p3254
I2
sV\u5c3e
p3255
I2
sV\u80c1
p3256
I1
sV\u51cb
p3257
I1
sV\u6e4a
p3258
I2
sV\u57cf
p3259
I1
sV\u69db
p3260
I2
sV\u865a
p3261
I1
sV\u5764
p3262
I1
sV\u9e6a
p3263
I1
sV\u8df3
p3264
I2
sV\u6f74
p3265
I1
sV\u7578
p3266
I1
sV\u7b7c
p3267
I1
sV\u6001
p3268
I2
sV\u8180
p3269
I2
sV\u548e
p3270
I2
sV\u7811
p3271
I2
sV\u9990
p3272
I1
sV\u5a92
p3273
I1
sV\u6096
p3274
I2
sV\u4f1f
p3275
I2
sV\u9021
p3276
I1
sV\u7eaa
p3277
I2
sV\u672f
p3278
I2
sV\u6d33
p3279
I2
sV\u7337
p3280
I1
sV\u8543
p3281
I1
sV\u67c4
p3282
I2
sV\u914b
p3283
I1
sV\u524d
p3284
I1
sV\u5851
p3285
I2
sV\u5e55
p3286
I2
sV\u7fd4
p3287
I1
sV\u8bdc
p3288
I1
sV\u5eea
p3289
I2
sV\u826d
p3290
I1
sV\u5377
p3291
I2
sV\u9a7d
p3292
I1
sV\u8102
p3293
I1
sV\u4e08
p3294
I2
sV\u970e
p3295
I2
sV\u5c14
p3296
I2
sV\u7424
p3297
I1
sV\u6db5
p3298
I1
sV\u8c34
p3299
I2
sV\u79bd
p3300
I1
sV\u83c1
p3301
I1
sV\u6b46
p3302
I1
sV\u52cb
p3303
I1
sV\u6d4a
p3304
I1
sV\u91cd
p3305
I2
sV\u5ed3
p3306
I2
sV\u8356
p3307
I2
sV\u9162
p3308
I2
sV\u5464
p3309
I2
sV\u5e68
p3310
I1
sV\u82eb
p3311
I1
sV\u606c
p3312
I1
sV\u6c74
p3313
I2
sV\u57f9
p3314
I1
sV\u7678
p3315
I2
sV\u9afb
p3316
I2
sV\u9cff
p3317
I2
sV\u6301
p3318
I1
sV\u6f09
p3319
I2
sV\u7b11
p3320
I2
sV\u9a90
p3321
I1
sV\u5992
p3322
I2
sV\u6396
p3323
I1
sV\u9525
p3324
I1
sV\u5827
p3325
I1
sV\u7ba6
p3326
I1
sV\u87ae
p3327
I2
sV\u7a3b
p3328
I2
sV\u58bc
p3329
I1
sV\u7c3f
p3330
I2
sV\u514d
p3331
I2
sV\u5b51
p3332
I1
sV\u9e53
p3333
I1
sV\u5d55
p3334
I1
sV\u695d
p3335
I2
sV\u4fde
p3336
I1
sV\u7565
p3337
I2
sV\u7f69
p3338
I2
sV\u4e73
p3339
I2
sV\u69f2
p3340
I1
sV\u8d75
p3341
I2
sV\u5077
p3342
I1
sV\u75fa
p3343
I2
sV\u997d
p3344
I1
sV\u5c7f
p3345
I2
sV\u7ffe
p3346
I1
sV\u6987
p3347
I2
sV\u738b
p3348
I1
sV\u8c0a
p3349
I2
sV\u510c
p3350
I2
sV\u758f
p3351
I1
sV\u960e
p3352
I1
sV\u5d14
p3353
I1
sV\u52a1
p3354
I2
sV\u7f28
p3355
I1
sV\u60ad
p3356
I1
sV\u8d34
p3357
I1
sV\u5236
p3358
I2
sV\u9738
p3359
I2
sV\u6042
p3360
I1
sV\u53cb
p3361
I2
sV\u9ad1
p3362
I1
sV\u6bdb
p3363
I1
sV\u5360
p3364
I2
sV\u77e3
p3365
I2
sV\u9062
p3366
I2
sV\u79e7
p3367
I1
sV\u8ff3
p3368
I2
sV\u6d74
p3369
I2
sV\u56f9
p3370
I1
sV\u797c
p3371
I2
sV\u6405
p3372
I2
sV\u8584
p3373
I1
sV\u8f88
p3374
I2
sV\u700d
p3375
I1
sV\u568e
p3376
I1
sV\u6296
p3377
I2
sV\u649a
p3378
I2
sV\u5723
p3379
I2
sV\u5927
p3380
I2
sV\u7aa6
p3381
I2
sV\u9e29
p3382
I2
sV\u632b
p3383
I2
sV\u7caa
p3384
I2
sV\u652f
p3385
I1
sV\u6f33
p3386
I1
sV\u94ba
p3387
I2
sV\u9ebe
p3388
I1
sV\u65c4
p3389
I1
sV\u4e49
p3390
I2
sV\u5c55
p3391
I2
sV\u89dc
p3392
I1
sV\u4ede
p3393
I2
sV\u7261
p3394
I2
sV\u5ae6
p3395
I1
sV\u5cea
p3396
I2
sV\u4f73
p3397
I1
sV\u68f2
p3398
I1
sV\u5177
p3399
I2
sV\u987d
p3400
I1
sV\u7efe
p3401
I2
sV\u6083
p3402
I2
sV\u8702
p3403
I1
sV\u6e87
p3404
I1
sV\u748b
p3405
I1
sV\u7893
p3406
I2
sV\u4f9d
p3407
I1
sV\u90a3
p3408
I2
sV\u53a5
p3409
I1
sV\u59a9
p3410
I2
sV\u67ad
p3411
I1
sV\u4f32
p3412
I2
sV\u6bb5
p3413
I2
sV\u71b9
p3414
I1
sV\u9038
p3415
I2
sV\u533a
p3416
I1
sV\u7fbd
p3417
I2
sV\u85c1
p3418
I2
sV\u6742
p3419
I1
sV\u83c5
p3420
I1
sV\u4ec7
p3421
I1
sV\u6d46
p3422
I1
sV\u89c9
p3423
I1
sV\u714e
p3424
I1
sV\u8556
p3425
I1
sV\u6cdb
p3426
I2
sV\u835a
p3427
I1
sV\u895e
p3428
I2
sV\u9762
p3429
I2
sV\u7ee7
p3430
I2
sV\u666c
p3431
I2
sV\u6c70
p3432
I2
sV\u88f3
p3433
I1
sV\u96f7
p3434
I1
sV\u51f9
p3435
I1
sV\u5ffd
p3436
I1
sV\u8480
p3437
I1
sV\u8888
p3438
I1
sV\u5f92
p3439
I1
sV\u7b15
p3440
I2
sV\u9521
p3441
I1
sV\u5e27
p3442
I2
sV\u7da6
p3443
I1
sV\u7baa
p3444
I1
sV\u7a3f
p3445
I2
sV\u8043
p3446
I1
sV\u62c4
p3447
I2
sV\u8e47
p3448
I2
sV\u76cc
p3449
I2
sV\u924f
p3450
I1
sV\u9853
p3451
I1
sV\u5b55
p3452
I2
sV\u94e0
p3453
I2
sV\u5de6
p3454
I2
sV\u98e8
p3455
I2
sV\u61ee
p3456
I2
sV\u9179
p3457
I2
sV\u5a7f
p3458
I2
sV\u79fe
p3459
I1
sV\u758b
p3460
I2
sV\u8b9f
p3461
I1
sV\u58a9
p3462
I1
sV\u6cb1
p3463
I1
sV\u8d30
p3464
I2
sV\u4e32
p3465
I2
sV\u70b9
p3466
I2
sV\u523a
p3467
I2
sV\u7ebd
p3468
I2
sV\u84c1
p3469
I1
sV\u96cd
p3470
I1
sV\u59d3
p3471
I2
sV\u825a
p3472
I1
sV\u4f5c
p3473
I2
sV\u9662
p3474
I2
sV\u5364
p3475
I2
sV\u89f3
p3476
I1
sV\u6401
p3477
I1
sV\u6809
p3478
I2
sV\u8019
p3479
I2
sV\u629a
p3480
I2
sV\u5f27
p3481
I1
sV\u652b
p3482
I1
sV\u632f
p3483
I2
sV\u80ae
p3484
I1
sV\u8eb2
p3485
I2
sV\u7737
p3486
I2
sV\u5fbc
p3487
I2
sV\u63c4
p3488
I1
sV\u5c51
p3489
I2
sV\u5a55
p3490
I1
sV\u6059
p3491
I2
sV\u8fdc
p3492
I2
sV\u56e2
p3493
I1
sV\u5ce6
p3494
I1
sV\u5aea
p3495
I2
sV\u60ee
p3496
I2
sV\u5777
p3497
I2
sV\u74f6
p3498
I1
sV\u6283
p3499
I2
sV\u768b
p3500
I1
sV\u890a
p3501
I2
sV\u540c
p3502
I1
sV\u5e10
p3503
I2
sV\u9d12
p3504
I1
sV\u6218
p3505
I2
sV\u7620
p3506
I1
sV\u51a5
p3507
I1
sV\u65ad
p3508
I2
sV\u842c
p3509
I2
sV\u6f46
p3510
I1
sV\u8bc9
p3511
I2
sV\u95cd
p3512
I1
sV\u50cf
p3513
I2
sV\u6edb
p3514
I1
sV\u9562
p3515
I1
sV\u996a
p3516
I2
sV\u80ef
p3517
I2
sV\u4ff1
p3518
I2
sV\u6874
p3519
I1
sV\u53f9
p3520
I2
sV\u7278
p3521
I2
sV\u9efb
p3522
I1
sV\u5dfd
p3523
I2
sV\u8680
p3524
I1
sV\u8084
p3525
I2
sV\u750d
p3526
I1
sV\u7f11
p3527
I1
sV\u5d92
p3528
I1
sV\u9894
p3529
I2
sV\u4e1b
p3530
I1
sV\u8d1d
p3531
I2
sV\u5c27
p3532
I1
sV\u602f
p3533
I2
sV\u97b6
p3534
I1
sV\u7e3b
p3535
I1
sV\u91ba
p3536
I1
sV\u66c0
p3537
I2
sV\u964b
p3538
I2
sV\u74cc
p3539
I1
sV\u904f
p3540
I2
sV\u5955
p3541
I2
sV\u78d4
p3542
I1
sV\u7761
p3543
I2
sV\u96e0
p3544
I1
sV\u55e2
p3545
I2
sV\u90e4
p3546
I2
sV\u7b69
p3547
I1
sV\u8f71
p3548
I1
sV\u5477
p3549
I1
sV\u77f6
p3550
I1
sV\u5e7b
p3551
I2
sV\u587f
p3552
I2
sV\u7bfe
p3553
I2
sV\u778b
p3554
I1
sV\u718f
p3555
I1
sV\u7b93
p3556
I2
sV\u5914
p3557
I1
sV\u8f9b
p3558
I1
sV\u7720
p3559
I1
sV\u50a5
p3560
I2
sV\u7b28
p3561
I2
sV\u64ad
p3562
I1
sV\u852c
p3563
I1
sV\u6eb1
p3564
I1
sV\u68b5
p3565
I2
sV\u5636
p3566
I1
sV\u72b9
p3567
I1
sV\u503a
p3568
I2
sV\u7cbd
p3569
I2
sV\u57cb
p3570
I1
sV\u51cf
p3571
I2
sV\u9ed1
p3572
I1
sV\u5bd3
p3573
I2
sV\u98d5
p3574
I1
sV\u65d7
p3575
I1
sV\u6fdb
p3576
I1
sV\u805a
p3577
I2
sV\u69df
p3578
I1
sV\u5760
p3579
I2
sV\u9e66
p3580
I1
sV\u656c
p3581
I2
sV\u8bf3
p3582
I1
sV\u95f7
p3583
I2
sV\u8780
p3584
I1
sV\u6005
p3585
I2
sV\u4e86
p3586
I1
sV\u9994
p3587
I2
sV\u6696
p3588
I2
sV\u4f1b
p3589
I2
sV\u609a
p3590
I2
sV\u9621
p3591
I1
sV\u5323
p3592
I1
sV\u5d27
p3593
I1
sV\u7ea6
p3594
I1
sV\u672b
p3595
I2
sV\u78aa
p3596
I1
sV\u612f
p3597
I2
sV\u82ae
p3598
I2
sV\u7537
p3599
I1
sV\u96b6
p3600
I2
sV\u90ba
p3601
I2
sV\u8343
p3602
I1
sV\u75cc
p3603
I1
sV\u83d8
p3604
I1
sV\u6c5d
p3605
I2
sV\u97e0
p3606
I2
sV\u54e2
p3607
I2
sV\u846d
p3608
I1
sV\u5f7b
p3609
I2
sV\u6c83
p3610
I2
sV\u8106
p3611
I2
sV\u870a
p3612
I1
sV\u5a0c
p3613
I2
sV\u7428
p3614
I1
sV\u8030
p3615
I1
sV\u5f3a
p3616
I1
sV\u553e
p3617
I2
sV\u89c1
p3618
I2
sV\u8fc5
p3619
I2
sV\u85c9
p3620
I1
sV\u91d1
p3621
I1
sV\u7352
p3622
I1
sV\u855e
p3623
I2
sV\u5860
p3624
I1
sV\u5468
p3625
I1
sV\u6070
p3626
I2
sV\u6674
p3627
I1
sV\u9a8c
p3628
I2
sV\u9694
p3629
I1
sV\u6996
p3630
I2
sV\u831d
p3631
I2
sV\u77aa
p3632
I2
sV\u6e2f
p3633
I2
sV\u83b2
p3634
I1
sV\u7a37
p3635
I2
sV\u5cb8
p3636
I2
sV\u52bc
p3637
I1
sV\u763f
p3638
I2
sV\u68c0
p3639
I2
sV\u8247
p3640
I2
sV\u984b
p3641
I1
sV\u9e4f
p3642
I1
sV\u5151
p3643
I2
sV\u76d4
p3644
I1
sV\u6d59
p3645
I2
sV\u4fda
p3646
I2
sV\u82dc
p3647
I2
sV\u7f65
p3648
I2
sV\u94e8
p3649
I1
sV\u6dee
p3650
I1
sV\u63f2
p3651
I1
sV\u5a77
p3652
I1
sV\u507b
p3653
I1
sV\u75fe
p3654
I1
sV\u6387
p3655
I1
sV\u8006
p3656
I1
sV\u798b
p3657
I1
sV\u5ea5
p3658
I1
sV\u7f24
p3659
I1
sV\u54a9
p3660
I1
sV\u7528
p3661
I2
sV\u8130
p3662
I2
sV\u7cb9
p3663
I2
sV\u543e
p3664
I1
sV\u88c1
p3665
I1
sV\u84c9
p3666
I1
sV\u59cb
p3667
I2
sV\u664a
p3668
I2
sV\u5fcf
p3669
I2
sV\u90d1
p3670
I2
sV\u55d3
p3671
I2
sV\u7252
p3672
I1
sV\u96d5
p3673
I1
sV\u6bd7
p3674
I1
sV\u5960
p3675
I2
sV\u5f64
p3676
I1
sV\u89eb
p3677
I2
sV\u966a
p3678
I1
sV\u6170
p3679
I2
sV\u6e05
p3680
I1
sV\u8f84
p3681
I1
sV\u6409
p3682
I2
sV\u7a0d
p3683
I1
sV\u7011
p3684
I2
sV\u9190
p3685
I1
sV\u8c19
p3686
I1
sV\u649e
p3687
I2
sV\u9e25
p3688
I1
sV\u76aa
p3689
I2
sV\u8d43
p3690
I1
sV\u4e45
p3691
I2
sV\u8347
p3692
I2
sV\u7bcc
p3693
I1
sV\u83dc
p3694
I2
sV\u50e6
p3695
I2
sV\u95e8
p3696
I1
sV\u4f6f
p3697
I1
sV\u6cee
p3698
I2
sV\u517b
p3699
I2
sV\u6e83
p3700
I2
sV\u8306
p3701
I1
sV\u7a8b
p3702
I1
sV\u9f0e
p3703
I2
sV\u7693
p3704
I2
sV\u601c
p3705
I1
sV\u5ba1
p3706
I2
sV\u7a20
p3707
I1
sV\u90a7
p3708
I1
sV\u57a9
p3709
I2
sV\u69ad
p3710
I2
sV\u8230
p3711
I2
sV\u65b5
p3712
I1
sV\u7fb9
p3713
I1
sV\u903c
p3714
I1
sV\u8bc1
p3715
I2
sV\u4ec3
p3716
I1
sV\u6942
p3717
I1
sV\u6346
p3718
I2
sV\u68d7
p3719
I2
sV\u4e58
p3720
I1
sV\u62db
p3721
I1
sV\u8d5a
p3722
I2
sV\u7ee3
p3723
I2
sV\u70e7
p3724
I1
sV\u5668
p3725
I2
sV\u956a
p3726
I1
sV\u6270
p3727
I2
sV\u51fd
p3728
I1
sV\u707c
p3729
I1
sV\u94ff
p3730
I1
sV\u6709
p3731
I2
sV\u5192
p3732
I2
sV\u6b96
p3733
I1
sV\u5eb8
p3734
I1
sV\u723b
p3735
I1
sV\u9dba
p3736
I1
sV\u6cc4
p3737
I2
sV\u66c8
p3738
I1
sV\u5351
p3739
I1
sV\u72d0
p3740
I1
sV\u5555
p3741
I1
sV\u615d
p3742
I2
sV\u80dc
p3743
I2
sV\u53e6
p3744
I2
sV\u7769
p3745
I2
sV\u96e8
p3746
I2
sV\u6fee
p3747
I1
sV\u917d
p3748
I2
sV\u8206
p3749
I1
sV\u9012
p3750
I2
sV\u5514
p3751
I1
sV\u6f18
p3752
I1
sV\u7b20
p3753
I2
sV\u7728
p3754
I2
sV\u68ad
p3755
I1
sV\u62b1
p3756
I2
sV\u5a36
p3757
I2
sV\u7eb9
p3758
I1
sV\u5c3a
p3759
I2
sV\u70bd
p3760
I2
sV\u4fc3
p3761
I2
sV\u6842
p3762
I2
sV\u6246
p3763
I2
sV\u644a
p3764
I1
sV\u8c5a
p3765
I1
sV\u65df
p3766
I1
sV\u865e
p3767
I1
sV\u7fe3
p3768
I2
sV\u71e7
p3769
I2
sV\u5768
p3770
I1
sV\u8beb
p3771
I2
sV\u946a
p3772
I1
sV\u8def
p3773
I2
sV\u6574
p3774
I2
sV\u95ff
p3775
I2
sV\u6c05
p3776
I2
sV\u780d
p3777
I2
sV\u998c
p3778
I2
sV\u6c9a
p3779
I2
sV\u80b2
p3780
I2
sV\u51bc
p3781
I2
sV\u753f
p3782
I1
sV\u96be
p3783
I1
sV\u6dc4
p3784
I1
sV\u67c8
p3785
I2
sV\u9b4b
p3786
I1
sV\u584d
p3787
I1
sV\u5251
p3788
I2
sV\u73d0
p3789
I2
sV\u9753
p3790
I2
sV\u5455
p3791
I2
sV\u8fd8
p3792
I1
sV\u7c65
p3793
I2
sV\u9de4
p3794
I1
sV\u54ea
p3795
I2
sV\u8475
p3796
I1
sV\u7cfa
p3797
I1
sV\u907d
p3798
I2
sV\u76fe
p3799
I2
sV\u6883
p3800
I2
sV\u6687
p3801
I1
sV\u5e0c
p3802
I1
sV\u5410
p3803
I2
sV\u829f
p3804
I1
sV\u7c20
p3805
I2
sV\u98a3
p3806
I2
sV\u5ba5
p3807
I2
sV\u96a7
p3808
I2
sV\u8e2c
p3809
I2
sV\u8234
p3810
I1
sV\u79b9
p3811
I2
sV\u8bc5
p3812
I2
sV\u5ccb
p3813
I1
sV\u5acf
p3814
I1
sV\u7752
p3815
I2
sV\u8d56
p3816
I2
sV\u62df
p3817
I2
sV\u5c60
p3818
I1
sV\u4fed
p3819
I2
sV\u59f9
p3820
I2
sV\u57fd
p3821
I2
sV\u6d01
p3822
I1
sV\u6109
p3823
I1
sV\u7511
p3824
I2
sV\u5792
p3825
I2
sV\u7315
p3826
I1
sV\u6b9a
p3827
I1
sV\u4eac
p3828
I1
sV\u6a2f
p3829
I1
sV\u6033
p3830
I2
sV\u56bc
p3831
I1
sV\u91be
p3832
I1
sV\u7ecc
p3833
I2
sV\u9053
p3834
I2
sV\u5355
p3835
I1
sV\u6959
p3836
I2
sV\u88d8
p3837
I1
sV\u90e8
p3838
I2
sV\u53ea
p3839
I2
sV\u8f6d
p3840
I2
sV\u547b
p3841
I1
sV\u6787
p3842
I1
sV\u5510
p3843
I1
sV\u9612
p3844
I2
sV\u8f97
p3845
I2
sV\u859b
p3846
I1
sV\u7d20
p3847
I2
sV\u7b24
p3848
I1
sV\u50a9
p3849
I1
sV\u62b5
p3850
I2
sV\u503e
p3851
I1
sV\u6446
p3852
I2
sV\u9ecd
p3853
I2
sV\u784e
p3854
I1
sV\u65db
p3855
I1
sV\u79e3
p3856
I2
sV\u9e62
p3857
I2
sV\u5b64
p3858
I1
sV\u77e7
p3859
I2
sV\u5168
p3860
I1
sV\u8bef
p3861
I2
sV\u6570
p3862
I2
sV\u81f3
p3863
I2
sV\u58f9
p3864
I1
sV\u7978
p3865
I2
sV\u95fb
p3866
I1
sV\u56fd
p3867
I1
sV\u9f8c
p3868
I2
sV\u4f17
p3869
I2
sV\u7ea2
p3870
I1
sV\u6d2b
p3871
I2
sV\u4fac
p3872
I1
sV\u9cb6
p3873
I1
sV\u753b
p3874
I2
sV\u733f
p3875
I1
sV\u6dc0
p3876
I2
sV\u8747
p3877
I1
sV\u61c8
p3878
I2
sV\u7fcc
p3879
I2
sV\u9b4f
p3880
I2
sV\u87dc
p3881
I2
sV\u54e6
p3882
I1
sV\u8e6d
p3883
I2
sV\u68ee
p3884
I1
sV\u8471
p3885
I1
sV\u66f2
p3886
I1
sV\u5f77
p3887
I2
sV\u9879
p3888
I2
sV\u557b
p3889
I2
sV\u7afa
p3890
I1
sV\u537f
p3891
I1
sV\u4e00
p3892
I1
sV\u6487
p3893
I1
sV\u810a
p3894
I1
sV\u788f
p3895
I2
sV\u641c
p3896
I1
sV\u5fa1
p3897
I2
sV\u7e20
p3898
I1
sV\u59a5
p3899
I2
sV\u94a7
p3900
I1
sV\u53a9
p3901
I2
sV\u7228
p3902
I2
sV\u8c2c
p3903
I2
sV\u593a
p3904
I1
sV\u75bd
p3905
I1
sV\u533e
p3906
I2
sV\u8fc1
p3907
I1
sV\u89c5
p3908
I2
sV\u6746
p3909
I1
sV\u5ecb
p3910
I1
sV\u614a
p3911
I2
sV\u6cd7
p3912
I2
sV\u66db
p3913
I1
sV\u60df
p3914
I1
sV\u835e
p3915
I1
sV\u7ae3
p3916
I2
sV\u916a
p3917
I2
sV\u88ef
p3918
I1
sV\u6670
p3919
I1
sV\u9cf7
p3920
I1
sV\u5bf9
p3921
I2
sV\u55fd
p3922
I2
sV\u6905
p3923
I2
sV\u8884
p3924
I2
sV\u6309
p3925
I2
sV\u9690
p3926
I2
sV\u7115
p3927
I2
sV\u639e
p3928
I2
sV\u5a23
p3929
I2
sV\u6e2b
p3930
I2
sV\u8bae
p3931
I2
sV\u6233
p3932
I1
sV\u5ab8
p3933
I1
sV\u62c8
p3934
I1
sV\u5751
p3935
I1
sV\u76d0
p3936
I1
sV\u5155
p3937
I2
sV\u6b59
p3938
I2
sV\u655d
p3939
I2
sV\u7f61
p3940
I1
sV\u9ee0
p3941
I1
sV\u5de2
p3942
I1
sV\u7965
p3943
I1
sV\u8d6d
p3944
I2
sV\u507f
p3945
I1
sV\u6b83
p3946
I1
sV\u8c02
p3947
I2
sV\u6587
p3948
I1
sV\u798f
p3949
I1
sV\u7f20
p3950
I1
sV\u52a9
p3951
I2
sV\u8d2c
p3952
I2
sV\u953c
p3953
I1
sV\u6c42
p3954
I1
sV\u88c5
p3955
I1
sV\u8feb
p3956
I2
sV\u6770
p3957
I1
sV\u54fd
p3958
I2
sV\u6805
p3959
I2
sV\u5492
p3960
I2
sV\u841d
p3961
I1
sV\u9e21
p3962
I1
sV\u7ca2
p3963
I1
sV\u5527
p3964
I1
sV\u76a6
p3965
I2
sV\u6f2b
p3966
I2
sV\u84b2
p3967
I1
sV\u5bb8
p3968
I1
sV\u98ba
p3969
I1
sV\u6fc0
p3970
I1
sV\u7dcc
p3971
I1
sV\u5055
p3972
I1
sV\u71d4
p3973
I1
sV\u4ed6
p3974
I1
sV\u6a59
p3975
I1
sV\u8bd8
p3976
I1
sV\u85dc
p3977
I1
sV\u7269
p3978
I2
sV\u8671
p3979
I1
sV\u7ef6
p3980
I2
sV\u9a79
p3981
I1
sV\u577b
p3982
I1
sV\u78fa
p3983
I1
sV\u7483
p3984
I1
sV\u6c93
p3985
I1
sV\u4e14
p3986
I2
sV\u989b
p3987
I1
sV\u5b9d
p3988
I2
sV\u7a1c
p3989
I1
sV\u9e9f
p3990
I1
sV\u6020
p3991
I2
sV\u73ad
p3992
I1
sV\u552e
p3993
I2
sV\u7fb5
p3994
I1
sV\u65b9
p3995
I1
sV\u8438
p3996
I1
sV\u6bbd
p3997
I1
sV\u89d1
p3998
I2
sV\u72d7
p3999
I2
sV\u5458
p4000
I1
sV\u7edf
p4001
I2
sV\u8966
p4002
I1
sV\u90eb
p4003
I1
sV\u53ed
p4004
I1
sV\u96ef
p4005
I1
sV\u5ff5
p4006
I2
sV\u6478
p4007
I1
sV\u6a7c
p4008
I1
sV\u8eff
p4009
I1
sV\u9080
p4010
I1
sV\u5382
p4011
I2
sV\u5986
p4012
I1
sV\u9c88
p4013
I1
sV\u5f8a
p4014
I1
sV\u6911
p4015
I1
sV\u6f15
p4016
I1
sV\u8e94
p4017
I1
sV\u5217
p4018
I2
sV\u9519
p4019
I2
sV\u5e1f
p4020
I2
sV\u63a2
p4021
I2
sV\u69a6
p4022
I2
sV\u8d29
p4023
I2
sV\u52ac
p4024
I1
sV\u7c33
p4025
I2
sV\u6237
p4026
I2
sV\u87ba
p4027
I1
sV\u8dbe
p4028
I2
sV\u5141
p4029
I2
sV\u804b
p4030
I1
sV\u62cc
p4031
I2
sV\u864f
p4032
I2
sV\u4f55
p4033
I1
sV\u6ed4
p4034
I1
sV\u7559
p4035
I1
sV\u57da
p4036
I1
sV\u7b5d
p4037
I1
sV\u5dde
p4038
I1
sV\u6765
p4039
I1
sV\u86e4
p4040
I1
sV\u6d69
p4041
I2
sV\u8ce8
p4042
I1
sV\u4fea
p4043
I2
sV\u9971
p4044
I2
sV\u7bf2
p4045
I2
sV\u7583
p4046
I2
sV\u5704
p4047
I2
sV\u9e0a
p4048
I2
sV\u840e
p4049
I1
sV\u6d93
p4050
I1
sV\u5499
p4051
I1
sV\u7518
p4052
I1
sV\u9f9f
p4053
I1
sV\u6120
p4054
I2
sV\u8ba7
p4055
I2
sV\u6d28
p4056
I1
sV\u542e
p4057
I2
sV\u5a32
p4058
I1
sV\u7eb5
p4059
I2
sV\u90c1
p4060
I2
sV\u7242
p4061
I1
sV\u96c5
p4062
I2
sV\u5bc7
p4063
I2
sV\u82cd
p4064
I1
sV\u5b5c
p4065
I1
sV\u7fdf
p4066
I1
sV\u8e6a
p4067
I1
sV\u736c
p4068
I2
sV\u7f74
p4069
I1
sV\u6b7c
p4070
I1
sV\u7001
p4071
I2
sV\u7c09
p4072
I2
sV\u5e8a
p4073
I1
sV\u620d
p4074
I2
sV\u6811
p4075
I2
sV\u8f94
p4076
I2
sV\u5317
p4077
I2
sV\u7096
p4078
I2
sV\u5f1f
p4079
I2
sV\u62a2
p4080
I2
sV\u68a6
p4081
I2
sV\u8c29
p4082
I1
sV\u6eaa
p4083
I1
sV\u9543
p4084
I1
sV\u9b47
p4085
I2
sV\u814b
p4086
I2
sV\u69d0
p4087
I1
sV\u8d53
p4088
I1
sV\u7459
p4089
I2
sV\u56da
p4090
I1
sV\u6c69
p4091
I2
sV\u8de8
p4092
I2
sV\u516b
p4093
I1
sV\u4eea
p4094
I1
sV\u576f
p4095
I1
sV\u74ee
p4096
I2
sV\u60f6
p4097
I1
sV\u4f7f
p4098
I2
sV\u6cfe
p4099
I1
sV\u5200
p4100
I1
sV\u9102
p4101
I2
sV\u5404
p4102
I2
sV\u7887
p4103
I2
sV\u5e08
p4104
I1
sV\u648f
p4105
I1
sV\u6e93
p4106
I1
sV\u8912
p4107
I1
sV\u9097
p4108
I1
sV\u9a9b
p4109
I2
sV\u9c9f
p4110
I1
sV\u4fa9
p4111
I2
sV\u572e
p4112
I2
sV\u7bb1
p4113
I1
sV\u7db5
p4114
I2
sV\u67b9
p4115
I1
sV\u8638
p4116
I2
sV\u674e
p4117
I2
sV\u8bd1
p4118
I2
sV\u4ed3
p4119
I1
sV\u8dd5
p4120
I2
sV\u7cdf
p4121
I1
sV\u8b66
p4122
I2
sV\u8d6a
p4123
I1
sV\u51ed
p4124
I1
sV\u7a70
p4125
I1
sV\u9ef3
p4126
I1
sV\u5df5
p4127
I1
sV\u7f09
p4128
I1
sV\u9e88
p4129
I2
sV\u610d
p4130
I2
sV\u808c
p4131
I1
sV\u8c94
p4132
I1
sV\u7396
p4133
I2
sV\u759a
p4134
I2
sV\u7f9e
p4135
I1
sV\u6daa
p4136
I1
sV\u50ac
p4137
I1
sV\u742f
p4138
I2
sV\u97ae
p4139
I1
sV\u8fbe
p4140
I1
sV\u5341
p4141
I1
sV\u5545
p4142
I1
sV\u7ec8
p4143
I1
sV\u824b
p4144
I2
sV\u53d6
p4145
I2
sV\u96d8
p4146
I2
sV\u795d
p4147
I2
sV\u77ee
p4148
I2
sV\u5e73
p4149
I1
sV\u63f6
p4150
I1
sV\u65fa
p4151
I2
sV\u5300
p4152
I1
sV\u9002
p4153
I2
sV\u5f08
p4154
I2
sV\u6320
p4155
I1
sV\u4ea9
p4156
I2
sV\u70ad
p4157
I2
sV\u4e3e
p4158
I2
sV\u57c3
p4159
I1
sV\u94c5
p4160
I1
sV\u7a46
p4161
I2
sV\u9ec9
p4162
I1
sV\u9e5e
p4163
I2
sV\u8c6a
p4164
I1
sV\u50ed
p4165
I2
sV\u95ef
p4166
I2
sV\u5af1
p4167
I1
sV\u8bfb
p4168
I1
sV\u697c
p4169
I1
sV\u7405
p4170
I1
sV\u9f88
p4171
I2
sV\u600d
p4172
I2
sV\u5117
p4173
I2
sV\u9619
p4174
I1
sV\u5b1b
p4175
I1
sV\u749a
p4176
I1
sV\u8425
p4177
I1
sV\u8e29
p4178
I2
sV\u732b
p4179
I1
sV\u6caa
p4180
I2
sV\u51ac
p4181
I1
sV\u752f
p4182
I1
sV\u96ae
p4183
I1
sV\u5bb0
p4184
I2
sV\u6b3b
p4185
I1
sV\u84ba
p4186
I1
sV\u6d3f
p4187
I1
sV\u73c0
p4188
I2
sV\u9743
p4189
I2
sV\u8f53
p4190
I1
sV\u52d6
p4191
I2
sV\u97d8
p4192
I2
sV\u785d
p4193
I1
sV\u85e4
p4194
I1
sV\u8fe8
p4195
I2
sV\u536b
p4196
I2
sV\u906d
p4197
I1
sV\u76ee
p4198
I2
sV\u9a71
p4199
I1
sV\u62f6
p4200
I1
sV\u8679
p4201
I1
sV\u887d
p4202
I2
sV\u9702
p4203
I2
sV\u6893
p4204
I2
sV\u9697
p4205
I1
sV\u5199
p4206
I2
sV\u9c9b
p4207
I1
sV\u962c
p4208
I1
sV\u7bb5
p4209
I1
sV\u8038
p4210
I2
sV\u614e
p4211
I2
sV\u8dd1
p4212
I2
sV\u8bd5
p4213
I2
sV\u76d7
p4214
I2
sV\u9556
p4215
I1
sV\u7adf
p4216
I2
sV\u8d66
p4217
I2
sV\u94eb
p4218
I2
sV\u57ed
p4219
I2
sV\u5df1
p4220
I2
sV\u7a74
p4221
I1
sV\u6078
p4222
I2
sV\u5782
p4223
I1
sV\u9888
p4224
I2
sV\u670d
p4225
I1
sV\u868c
p4226
I2
sV\u6d11
p4227
I1
sV\u9119
p4228
I2
sV\u5a1f
p4229
I1
sV\u8521
p4230
I2
sV\u67a2
p4231
I1
sV\u4e27
p4232
I2
sV\u6da6
p4233
I2
sV\u56ac
p4234
I1
sV\u91ae
p4235
I2
sV\u83ba
p4236
I1
sV\u5541
p4237
I1
sV\u5345
p4238
I2
sV\u72c4
p4239
I1
sV\u9e47
p4240
I1
sV\u5949
p4241
I2
sV\u6cd0
p4242
I2
sV\u7f5d
p4243
I1
sV\u9edc
p4244
I2
sV\u59de
p4245
I1
sV\u84e0
p4246
I1
sV\u6969
p4247
I1
sV\u88e8
p4248
I2
sV\u546b
p4249
I2
sV\u526f
p4250
I2
sV\u71ee
p4251
I2
sV\u65f6
p4252
I1
sV\u8179
p4253
I2
sV\u8f7d
p4254
I2
sV\u9602
p4255
I1
sV\u5304
p4256
I2
sV\u7f87
p4257
I1
sV\u658b
p4258
I1
sV\u638f
p4259
I1
sV\u7f1c
p4260
I2
sV\u6324
p4261
I2
sV\u7cb1
p4262
I1
sV\u5e32
p4263
I1
sV\u8138
p4264
I2
sV\u6ebd
p4265
I2
sV\u94c1
p4266
I2
sV\u7a4a
p4267
I2
sV\u77d7
p4268
I2
sV\u8662
p4269
I1
sV\u95eb
p4270
I1
sV\u56ed
p4271
I1
sV\u7b74
p4272
I2
sV\u8dfb
p4273
I1
sV\u4efd
p4274
I2
sV\u6f7c
p4275
I1
sV\u9988
p4276
I2
sV\u5a8a
p4277
I1
sV\u6c11
p4278
I1
sV\u4e92
p4279
I2
sV\u6a15
p4280
I2
sV\u5d1b
p4281
I1
sV\u6ca6
p4282
I1
sV\u752b
p4283
I2
sV\u90ae
p4284
I1
sV\u5db0
p4285
I2
sV\u5bb4
p4286
I2
sV\u6d3b
p4287
I1
sV\u834f
p4288
I2
sV\u6bd4
p4289
I2
sV\u6869
p4290
I1
sV\u536f
p4291
I2
sV\u5973
p4292
I2
sV\u9a75
p4293
I2
sV\u5a08
p4294
I1
sV\u830e
p4295
I1
sV\u4e10
p4296
I2
sV\u9497
p4297
I1
sV\u9e9b
p4298
I1
sV\u7c1c
p4299
I2
sV\u989f
p4300
I1
sV\u6620
p4301
I2
sV\u82a3
p4302
I1
sV\u6a28
p4303
I1
sV\u532e
p4304
I2
sV\u9e30
p4305
I1
sV\u8238
p4306
I2
sV\u52c3
p4307
I1
sV\u794a
p4308
I1
sV\u634e
p4309
I1
sV\u8fd1
p4310
I2
sV\u6d52
p4311
I2
sV\u9756
p4312
I2
sV\u7edb
p4313
I2
sV\u62e3
p4314
I2
sV\u8f66
p4315
I1
sV\u90ef
p4316
I1
sV\u5ff1
p4317
I1
sV\u7701
p4318
I2
sV\u5582
p4319
I2
sV\u9a88
p4320
I1
sV\u5417
p4321
I1
sV\u5e1b
p4322
I1
sV\u8721
p4323
I2
sV\u54ac
p4324
I2
sV\u7a33
p4325
I2
sV\u81ba
p4326
I1
sV\u8bbe
p4327
I2
sV\u5145
p4328
I1
sV\u4f51
p4329
I2
sV\u9cdc
p4330
I2
sV\u5bde
p4331
I2
sV\u6761
p4332
I1
sV\u80e4
p4333
I2
sV\u4fe6
p4334
I1
sV\u566b
p4335
I1
sV\u73ee
p4336
I2
sV\u9975
p4337
I2
sV\u7383
p4338
I1
sV\u4f10
p4339
I1
sV\u6b93
p4340
I2
sV\u8c12
p4341
I2
sV\u5299
p4342
I1
sV\u9f9b
p4343
I1
sV\u6124
p4344
I2
sV\u522e
p4345
I1
sV\u7eb1
p4346
I1
sV\u62b9
p4347
I2
sV\u8338
p4348
I1
sV\u6cbd
p4349
I1
sV\u8d3c
p4350
I1
sV\u96c1
p4351
I2
sV\u90c5
p4352
I2
sV\u5dc7
p4353
I1
sV\u84cd
p4354
I1
sV\u624e
p4355
I1
sV\u88d5
p4356
I2
sV\u7fdb
p4357
I1
sV\u79df
p4358
I1
sV\u63e3
p4359
I1
sV\u97eb
p4360
I2
sV\u54ed
p4361
I1
sV\u756c
p4362
I1
sV\u6d7c
p4363
I2
sV\u89ff
p4364
I1
sV\u7601
p4365
I2
sV\u5482
p4366
I1
sV\u5e86
p4367
I2
sV\u8f90
p4368
I1
sV\u7696
p4369
I2
sV\u5f1b
p4370
I1
sV\u591f
p4371
I2
sV\u92ae
p4372
I1
sV\u7b33
p4373
I1
sV\u9cb2
p4374
I1
sV\u80ba
p4375
I2
sV\u693f
p4376
I1
sV\u5a49
p4377
I2
sV\u65cc
p4378
I1
sV\u69d4
p4379
I1
sV\u7259
p4380
I1
sV\u50da
p4381
I1
sV\u7c5d
p4382
I1
sV\u6661
p4383
I1
sV\u87e0
p4384
I1
sV\u576b
p4385
I2
sV\u72ee
p4386
I1
sV\u5b73
p4387
I1
sV\u9875
p4388
I2
sV\u60fa
p4389
I1
sV\u7c83
p4390
I2
sV\u5408
p4391
I1
sV\u9a97
p4392
I2
sV\u5d99
p4393
I1
sV\u909b
p4394
I1
sV\u539d
p4395
I2
sV\u969f
p4396
I2
sV\u4fa5
p4397
I2
sV\u6e24
p4398
I1
sV\u82a7
p4399
I2
sV\u7bad
p4400
I2
sV\u5d2e
p4401
I2
sV\u77b5
p4402
I1
sV\u9634
p4403
I1
sV\u4f3a
p4404
I2
sV\u52c7
p4405
I2
sV\u95c9
p4406
I1
sV\u8bcd
p4407
I1
sV\u6d4e
p4408
I2
sV\u70db
p4409
I1
sV\u525c
p4410
I1
sV\u76df
p4411
I1
sV\u955e
p4412
I1
sV\u6ce3
p4413
I2
sV\u62e7
p4414
I1
sV\u9eef
p4415
I2
sV\u7070
p4416
I1
sV\u627c
p4417
I2
sV\u7901
p4418
I1
sV\u7f05
p4419
I2
sV\u9488
p4420
I1
sV\u8a8c
p4421
I2
sV\u6715
p4422
I2
sV\u7996
p4423
I1
sV\u7f9a
p4424
I1
sV\u8921
p4425
I1
sV\u6ba2
p4426
I2
sV\u67aa
p4427
I1
sV\u7433
p4428
I1
sV\u603b
p4429
I2
sV\u5941
p4430
I1
sV\u7ec4
p4431
I2
sV\u6569
p4432
I2
sV\u586b
p4433
I1
sV\u9171
p4434
I2
sV\u5473
p4435
I2
sV\u9a02
p4436
I1
sV\u5f04
p4437
I2
sV\u7387
p4438
I2
sV\u9006
p4439
I2
sV\u960a
p4440
I1
sV\u8c0e
p4441
I2
sV\u6593
p4442
I1
sV\u8212
p4443
I1
sV\u529d
p4444
I2
sV\u731c
p4445
I1
sV\u979f
p4446
I2
sV\u6920
p4447
I2
sV\u8da3
p4448
I2
sV\u4ea5
p4449
I2
sV\u6cb9
p4450
I1
sV\u8d38
p4451
I2
sV\u4e3a
p4452
I2
sV\u62bd
p4453
I1
sV\u98c1
p4454
I1
sV\u53c7
p4455
I2
sV\u4fcf
p4456
I2
sV\u6252
p4457
I1
sV\u5d58
p4458
I1
sV\u9e5a
p4459
I1
sV\u535c
p4460
I1
sV\u95f3
p4461
I1
sV\u56f5
p4462
I1
sV\u8bf7
p4463
I2
sV\u6d78
p4464
I2
sV\u81fb
p4465
I1
sV\u7801
p4466
I2
sV\u9980
p4467
I1
sV\u9f84
p4468
I1
sV\u7409
p4469
I1
sV\u9588
p4470
I2
sV\u8b8c
p4471
I2
sV\u6615
p4472
I1
sV\u5b17
p4473
I2
sV\u571f
p4474
I2
sV\u749e
p4475
I1
sV\u8821
p4476
I1
sV\u8e25
p4477
I2
sV\u60a6
p4478
I2
sV\u7f2f
p4479
I1
sV\u51b0
p4480
I1
sV\u7533
p4481
I1
sV\u6b37
p4482
I1
sV\u79c0
p4483
I2
sV\u5e45
p4484
I1
sV\u67d4
p4485
I1
sV\u58d6
p4486
I1
sV\u725d
p4487
I2
sV\u54de
p4488
I1
sV\u6861
p4489
I1
sV\u8fe4
p4490
I1
sV\u6469
p4491
I1
sV\u85e8
p4492
I1
sV\u596b
p4493
I1
sV\u9a6d
p4494
I2
sV\u5f6f
p4495
I2
sV\u72f2
p4496
I1
sV\u9675
p4497
I1
sV\u8c79
p4498
I2
sV\u9902
p4499
I2
sV\u5c04
p4500
I2
sV\u5608
p4501
I1
sV\u6c8f
p4502
I1
sV\u9897
p4503
I1
sV\u5f99
p4504
I2
sV\u949f
p4505
I1
sV\u6c24
p4506
I1
sV\u6628
p4507
I1
sV\u75b5
p4508
I1
sV\u6fb9
p4509
I2
sV\u83d1
p4510
I1
sV\u85d5
p4511
I2
sV\u505c
p4512
I1
sV\u74df
p4513
I1
sV\u975e
p4514
I1
sV\u60e7
p4515
I2
sV\u8366
p4516
I2
sV\u9aeb
p4517
I1
sV\u786c
p4518
I2
sV\u53f1
p4519
I2
sV\u96f3
p4520
I2
sV\u607c
p4521
I2
sV\u84ff
p4522
I1
sV\u9a80
p4523
I2
sV\u5982
p4524
I1
sV\u7d05
p4525
I1
sV\u5386
p4526
I2
sV\u7709
p4527
I1
sV\u9688
p4528
I1
sV\u558a
p4529
I2
sV\u690d
p4530
I1
sV\u6311
p4531
I1
sV\u7b96
p4532
I1
sV\u9f19
p4533
I1
sV\u521b
p4534
I2
sV\u541f
p4535
I1
sV\u8d25
p4536
I2
sV\u8729
p4537
I1
sV\u7633
p4538
I1
sV\u91b2
p4539
I1
sV\u6837
p4540
I2
sV\u8bb6
p4541
I2
sV\u4eb8
p4542
I2
sV\u8dba
p4543
I1
sV\u9e43
p4544
I1
sV\u9047
p4545
I2
sV\u76c8
p4546
I1
sV\u62d0
p4547
I2
sV\u5bd6
p4548
I2
sV\u9ed8
p4549
I2
sV\u6d65
p4550
I2
sV\u996d
p4551
I2
sV\u5c6f
p4552
I1
sV\u7fee
p4553
I1
sV\u9575
p4554
I1
sV\u8f79
p4555
I2
sV\u7f83
p4556
I2
sV\u5708
p4557
I1
sV\u6b8b
p4558
I1
sV\u8012
p4559
I2
sV\u9997
p4560
I1
sV\u5e99
p4561
I2
sV\u7f18
p4562
I1
sV\u711c
p4563
I1
sV\u959f
p4564
I2
sV\u6b20
p4565
I2
sV\u8fa3
p4566
I2
sV\u6728
p4567
I2
sV\u5e2e
p4568
I1
sV\u5fc3
p4569
I1
sV\u9cc5
p4570
I1
sV\u96c9
p4571
I2
sV\u744a
p4572
I1
sV\u6e4e
p4573
I2
sV\u82d1
p4574
I2
sV\u6052
p4575
I1
sV\u515c
p4576
I1
sV\u8862
p4577
I1
sV\u97f3
p4578
I1
sV\u7574
p4579
I1
sV\u6f78
p4580
I1
sV\u85ff
p4581
I2
sV\u4e8e
p4582
I1
sV\u6211
p4583
I2
sV\u7a96
p4584
I2
sV\u901d
p4585
I2
sV\u769e
p4586
I2
sV\u68a2
p4587
I1
sV\u8c25
p4588
I2
sV\u8629
p4589
I1
sV\u7d2f
p4590
I2
sV\u653f
p4591
I2
sV\u5c45
p4592
I1
sV\u69cc
p4593
I1
sV\u8d4f
p4594
I2
sV\u63d0
p4595
I1
sV\u5ad6
p4596
I1
sV\u7e59
p4597
I1
sV\u91dc
p4598
I2
sV\u56de
p4599
I1
sV\u6a61
p4600
I2
sV\u8be0
p4601
I1
sV\u5d6f
p4602
I1
sV\u7eee
p4603
I2
sV\u5773
p4604
I2
sV\u66fe
p4605
I1
sV\u5a04
p4606
I1
sV\u7687
p4607
I1
sV\u8712
p4608
I1
sV\u5999
p4609
I2
sV\u6028
p4610
I2
sV\u9e2c
p4611
I1
sV\u592e
p4612
I1
sV\u863c
p4613
I1
sV\u7f42
p4614
I1
sV\u91c9
p4615
I2
sV\u8fcd
p4616
I1
sV\u5858
p4617
I1
sV\u9b5a
p4618
I1
sV\u915e
p4619
I2
sV\u68e3
p4620
I2
sV\u836a
p4621
I1
sV\u9aef
p4622
I1
sV\u7470
p4623
I1
sV\u53f5
p4624
I2
sV\u667c
p4625
I2
sV\u5f82
p4626
I1
sV\u9a84
p4627
I1
sV\u7109
p4628
I1
sV\u9088
p4629
I2
sV\u7d96
p4630
I1
sV\u541b
p4631
I1
sV\u8d21
p4632
I2
sV\u63aa
p4633
I2
sV\u97b2
p4634
I1
sV\u8bba
p4635
I2
sV\u623f
p4636
I1
sV\u9647
p4637
I2
sV\u5149
p4638
I1
sV\u70c8
p4639
I2
sV\u4f4d
p4640
I2
sV\u6ecc
p4641
I1
sV\u64d0
p4642
I2
sV\u62d4
p4643
I1
sV\u98d8
p4644
I1
sV\u6b65
p4645
I2
sV\u9e02
p4646
I1
sV\u5899
p4647
I1
sV\u6b24
p4648
I1
sV\u7ead
p4649
I1
sV\u5632
p4650
I1
sV\u9ac5
p4651
I1
sV\u84d1
p4652
I1
sV\u6652
p4653
I2
sV\u82d5
p4654
I1
sV\u5958
p4655
I2
sV\u75db
p4656
I2
sV\u8ff7
p4657
I1
sV\u6978
p4658
I1
sV\u85fb
p4659
I2
sV\u677c
p4660
I2
sV\u83ff
p4661
I2
sV\u9b84
p4662
I1
sV\u5486
p4663
I1
sV\u6e0d
p4664
I2
sV\u6215
p4665
I1
sV\u5f17
p4666
I1
sV\u8c21
p4667
I2
sV\u6ea2
p4668
I2
sV\u64a6
p4669
I2
sV\u7d2b
p4670
I2
sV\u5fac
p4671
I1
sV\u653b
p4672
I1
sV\u5c41
p4673
I2
sV\u8d4b
p4674
I2
sV\u4e4d
p4675
I2
sV\u65d0
p4676
I2
sV\u8153
p4677
I1
sV\u6c61
p4678
I1
sV\u6a65
p4679
I1
sV\u8be4
p4680
I1
sV\u6069
p4681
I1
sV\u5d6b
p4682
I1
sV\u9e6d
p4683
I2
sV\u9471
p4684
I1
sV\u5173
p4685
I1
sV\u76f2
p4686
I1
sV\u6afa
p4687
I1
sV\u867d
p4688
I1
sV\u7a83
p4689
I2
sV\u9d02
p4690
I1
sV\u7487
p4691
I1
sV\u9706
p4692
I1
sV\u5208
p4693
I2
sV\u6293
p4694
I1
sV\u5b99
p4695
I2
sV\u559d
p4696
I1
sV\u6e20
p4697
I1
sV\u4f36
p4698
I1
sV\u65bd
p4699
I1
sV\u843c
p4700
I2
sV\u54c7
p4701
I1
sV\u7746
p4702
I2
sV\u4ecb
p4703
I2
sV\u714a
p4704
I1
sV\u76db
p4705
I2
sV\u545c
p4706
I1
sV\u70df
p4707
I1
sV\u4e60
p4708
I1
sV\u8d62
p4709
I1
sV\u7f01
p4710
I1
sV\u5d82
p4711
I2
sV\u9884
p4712
I2
sV\u5786
p4713
I1
sV\u8c8c
p4714
I2
sV\u6115
p4715
I2
sV\u501f
p4716
I2
sV\u8925
p4717
I2
sV\u6c37
p4718
I1
sV\u7ec0
p4719
I2
sV\u5349
p4720
I2
sV\u72c8
p4721
I2
sV\u8e4b
p4722
I2
sV\u6ccc
p4723
I2
sV\u8253
p4724
I1
sV\u5fd6
p4725
I2
sV\u7b59
p4726
I1
sV\u9ad8
p4727
I1
sV\u59da
p4728
I1
sV\u94dc
p4729
I1
sV\u6369
p4730
I2
sV\u7bee
p4731
I1
sV\u5f00
p4732
I1
sV\u5904
p4733
I2
sV\u9606
p4734
I1
sV\u5308
p4735
I1
sV\u900a
p4736
I2
sV\u9d97
p4737
I1
sV\u751c
p4738
I1
sV\u4ea1
p4739
I1
sV\u6f20
p4740
I2
sV\u8ba3
p4741
I2
sV\u6328
p4742
I1
sV\u76b1
p4743
I2
sV\u9730
p4744
I2
sV\u853c
p4745
I2
sV\u704a
p4746
I1
sV\u6452
p4747
I2
sV\u5b58
p4748
I1
sV\u77db
p4749
I1
sV\u555c
p4750
I2
sV\u4f60
p4751
I2
sV\u65e7
p4752
I2
sV\u806a
p4753
I1
sV\u5ced
p4754
I2
sV\u50f5
p4755
I1
sV\u7174
p4756
I1
sV\u5c82
p4757
I2
sV\u6015
p4758
I2
sV\u511f
p4759
I1
sV\u7f2b
p4760
I1
sV\u94b2
p4761
I1
sV\u613f
p4762
I2
sV\u82be
p4763
I2
sV\u9547
p4764
I2
sV\u5249
p4765
I2
sV\u73c8
p4766
I1
sV\u6dcc
p4767
I2
sV\u67d0
p4768
I2
sV\u61d4
p4769
I2
sV\u6865
p4770
I1
sV\u6269
p4771
I2
sV\u5373
p4772
I1
sV\u9075
p4773
I1
sV\u8a79
p4774
I1
sV\u68fa
p4775
I1
sV\u62fe
p4776
I1
sV\u6000
p4777
I1
sV\u9991
p4778
I2
sV\u6599
p4779
I2
sV\u871a
p4780
I1
sV\u8d1e
p4781
I1
sV\u77a5
p4782
I1
sV\u5624
p4783
I1
sV\u9926
p4784
I1
sV\u5c28
p4785
I1
sV\u80ab
p4786
I1
sV\u9f2a
p4787
I1
sV\u86af
p4788
I1
sV\u6b32
p4789
I2
sV\u4fb5
p4790
I1
sV\u7136
p4791
I1
sV\u773a
p4792
I2
sV\u5bbd
p4793
I1
sV\u76cf
p4794
I2
sV\u6458
p4795
I1
sV\u8bdd
p4796
I2
sV\u63ed
p4797
I1
sV\u69f1
p4798
I2
sV\u75f9
p4799
I2
sV\u8403
p4800
I2
sV\u6986
p4801
I1
sV\u900b
p4802
I1
sV\u960f
p4803
I2
sV\u5f15
p4804
I2
sV\u90a0
p4805
I1
sV\u53a2
p4806
I1
sV\u96a4
p4807
I1
sV\u5faa
p4808
I1
sV\u832d
p4809
I1
sV\u62ac
p4810
I1
sV\u68b0
p4811
I2
sV\u5237
p4812
I1
sV\u9539
p4813
I1
sV\u83c2
p4814
I2
sV\u89c6
p4815
I2
sV\u7f55
p4816
I2
sV\u67da
p4817
I2
sV\u8e5f
p4818
I1
sV\u6dde
p4819
I1
sV\u79e6
p4820
I1
sV\u5d69
p4821
I1
sV\u606b
p4822
I2
sV\u666f
p4823
I2
sV\u7277
p4824
I1
sV\u51f6
p4825
I1
sV\u94f8
p4826
I2
sV\u57fa
p4827
I1
sV\u5dfe
p4828
I1
sV\u8c89
p4829
I1
sV\u9891
p4830
I1
sV\u5d93
p4831
I1
sV\u7f14
p4832
I2
sV\u6499
p4833
I2
sV\u9e2a
p4834
I1
sV\u87af
p4835
I1
sV\u8db3
p4836
I1
sV\u7c3e
p4837
I1
sV\u65c3
p4838
I1
sV\u8d48
p4839
I2
sV\u71cb
p4840
I1
sV\u6b5c
p4841
I2
sV\u4fdf
p4842
I1
sV\u90e1
p4843
I2
sV\u55e3
p4844
I2
sV\u62ed
p4845
I2
sV\u68f1
p4846
I1
sV\u5578
p4847
I2
sV\u7afd
p4848
I1
sV\u8b07
p4849
I2
sV\u520d
p4850
I1
sV\u970f
p4851
I1
sV\u748e
p4852
I1
sV\u5811
p4853
I2
sV\u5e15
p4854
I2
sV\u63ac
p4855
I1
sV\u8e35
p4856
I2
sV\u6041
p4857
I2
sV\u6c49
p4858
I2
sV\u724d
p4859
I1
sV\u53cc
p4860
I1
sV\u94ce
p4861
I1
sV\u59d0
p4862
I2
sV\u66da
p4863
I1
sV\u6cde
p4864
I2
sV\u7eea
p4865
I2
sV\u676f
p4866
I1
sV\u8ff4
p4867
I1
sV\u95f8
p4868
I1
sV\u56fa
p4869
I2
sV\u8585
p4870
I1
sV\u8f89
p4871
I1
sV\u918d
p4872
I1
sV\u548f
p4873
I2
sV\u5e93
p4874
I2
sV\u851a
p4875
I2
sV\u5220
p4876
I1
sV\u9122
p4877
I1
sV\u5e28
p4878
I2
sV\u672e
p4879
I2
sV\u753a
p4880
I1
sV\u8e48
p4881
I2
sV\u574e
p4882
I2
sV\u7ed3
p4883
I1
sV\u876e
p4884
I2
sV\u79fd
p4885
I2
sV\u9f7e
p4886
I2
sV\u6b86
p4887
I2
sV\u4f09
p4888
I2
sV\u778e
p4889
I1
sV\u6a1b
p4890
I1
sV\u889c
p4891
I2
sV\u51a2
p4892
I2
sV\u94a4
p4893
I1
sV\u7827
p4894
I1
sV\u5ba6
p4895
I2
sV\u9ea8
p4896
I2
sV\u5daa
p4897
I2
sV\u60ac
p4898
I1
sV\u8d35
p4899
I2
sV\u6cb4
p4900
I2
sV\u9739
p4901
I1
sV\u5c3f
p4902
I2
sV\u81c2
p4903
I2
sV\u6545
p4904
I2
sV\u8bc6
p4905
I2
sV\u7b51
p4906
I2
sV\u63d6
p4907
I1
sV\u5361
p4908
I2
sV\u5565
p4909
I2
sV\u7be6
p4910
I2
sV\u5f69
p4911
I2
sV\u626b
p4912
I2
sV\u53f6
p4913
I2
sV\u5ffe
p4914
I2
sV\u538b
p4915
I1
sV\u558f
p4916
I2
sV\u9a91
p4917
I1
sV\u7b10
p4918
I1
sV\u841a
p4919
I2
sV\u8e1e
p4920
I2
sV\u5320
p4921
I2
sV\u9022
p4922
I1
sV\u5524
p4923
I2
sV\u7ea9
p4924
I2
sV\u83ab
p4925
I2
sV\u91b7
p4926
I2
sV\u7236
p4927
I2
sV\u8340
p4928
I1
sV\u914c
p4929
I1
sV\u75cf
p4930
I2
sV\u86d9
p4931
I1
sV\u7360
p4932
I1
sV\u7564
p4933
I2
sV\u7f68
p4934
I2
sV\u60ed
p4935
I1
sV\u8872
p4936
I2
sV\u8703
p4937
I2
sV\u4e09
p4938
I1
sV\u500d
p4939
I2
sV\u768e
p4940
I2
sV\u5a11
p4941
I1
sV\u9f13
p4942
I2
sV\u6d1f
p4943
I2
sV\u95a4
p4944
I1
sV\u61ac
p4945
I2
sV\u6db4
p4946
I2
sV\u5d3f
p4947
I2
sV\u6241
p4948
I2
sV\u6445
p4949
I1
sV\u51cc
p4950
I1
sV\u96ce
p4951
I1
sV\u7a51
p4952
I2
sV\u5bd0
p4953
I2
sV\u98d2
p4954
I2
sV\u62d6
p4955
I1
sV\u6ede
p4956
I2
sV\u5261
p4957
I2
sV\u9967
p4958
I1
sV\u7ae6
p4959
I2
sV\u81ec
p4960
I2
sV\u8bf0
p4961
I2
sV\u54fa
p4962
I2
sV\u6400
p4963
I1
sV\u8385
p4964
I2
sV\u6808
p4965
I2
sV\u548b
p4966
I2
sV\u978d
p4967
I1
sV\u760c
p4968
I2
sV\u5893
p4969
I2
sV\u7a14
p4970
I2
sV\u4e1c
p4971
I1
sV\u5420
p4972
I2
sV\u9722
p4973
I2
sV\u5224
p4974
I2
sV\u79a9
p4975
I2
sV\u82af
p4976
I1
sV\u733a
p4977
I1
sV\u5fbd
p4978
I1
sV\u793e
p4979
I2
sV\u8244
p4980
I1
sV\u6ec7
p4981
I1
sV\u964c
p4982
I2
sV\u5f52
p4983
I1
sV\u9a54
p4984
I2
sV\u8fdd
p4985
I1
sV\u816e
p4986
I1
sV\u6df1
p4987
I1
sV\u8f72
p4988
I1
sV\u6bf5
p4989
I1
sV\u9576
p4990
I1
sV\u71f9
p4991
I2
sV\u5e7c
p4992
I2
sV\u8003
p4993
I2
sV\u6b8a
p4994
I1
sV\u5d11
p4995
I1
sV\u8098
p4996
I2
sV\u6c1b
p4997
I1
sV\u6a1f
p4998
I1
sV\u7023
p4999
I2
sV\u57a2
p5000
I2
sV\u98a8
p5001
I1
sV\u5baa
p5002
I2
sV\u8d31
p5003
I2
sV\u9139
p5004
I1
sV\u70b8
p5005
I2
sV\u8bca
p5006
I2
sV\u774d
p5007
I2
sV\u91ce
p5008
I2
sV\u5ad4
p5009
I1
sV\u65d6
p5010
I2
sV\u9063
p5011
I2
sV\u77e2
p5012
I2
sV\u9e67
p5013
I2
sV\u7bea
p5014
I1
sV\u626f
p5015
I2
sV\u8af4
p5016
I1
sV\u90f8
p5017
I1
sV\u7c7b
p5018
I2
sV\u9efc
p5019
I2
sV\u7a7f
p5020
I1
sV\u6500
p5021
I1
sV\u558b
p5022
I1
sV\u968d
p5023
I1
sV\u9c91
p5024
I1
sV\u5993
p5025
I2
sV\u9a95
p5026
I2
sV\u7b14
p5027
I2
sV\u7436
p5028
I1
sV\u783e
p5029
I2
sV\u8344
p5030
I1
sV\u504e
p5031
I1
sV\u9b54
p5032
I1
sV\u80d9
p5033
I2
sV\u6f5c
p5034
I1
sV\u94e1
p5035
I1
sV\u5fe7
p5036
I1
sV\u7968
p5037
I2
sV\u6cf1
p5038
I1
sV\u8e72
p5039
I1
sV\u70f9
p5040
I1
sV\u5178
p5041
I2
sV\u7efd
p5042
I2
sV\u5f7c
p5043
I2
sV\u987e
p5044
I2
sV\u6682
p5045
I2
sV\u6c86
p5046
I2
sV\u950b
p5047
I1
sV\u708e
p5048
I1
sV\u5c11
p5049
I2
sV\u6717
p5050
I2
sV\u8198
p5051
I1
sV\u6d1b
p5052
I2
sV\u8f9c
p5053
I1
sV\u7f27
p5054
I1
sV\u99a8
p5055
I1
sV\u5aaa
p5056
I2
sV\u67ac
p5057
I1
sV\u8c31
p5058
I2
sV\u6bb4
p5059
I1
sV\u9e3d
p5060
I1
sV\u90ce
p5061
I1
sV\u5bd4
p5062
I1
sV\u8757
p5063
I1
sV\u8d5b
p5064
I2
sV\u62da
p5065
I2
sV\u4e5d
p5066
I2
sV\u9163
p5067
I1
sV\u5265
p5068
I1
sV\u9f67
p5069
I2
sV\u656b
p5070
I2
sV\u4ef2
p5071
I2
sV\u8bf4
p5072
I1
sV\u52fa
p5073
I1
sV\u7b7f
p5074
I2
sV\u7814
p5075
I1
sV\u811a
p5076
I2
sV\u6d9d
p5077
I2
sV\u9522
p5078
I2
sV\u7ba9
p5079
I1
sV\u80af
p5080
I2
sV\u6d32
p5081
I1
sV\u7736
p5082
I2
sV\u9ebb
p5083
I1
sV\u98bf
p5084
I1
sV\u7b3e
p5085
I1
sV\u8640
p5086
I1
sV\u4f46
p5087
I2
sV\u8a48
p5088
I2
sV\u76cb
p5089
I1
sV\u534e
p5090
I1
sV\u6258
p5091
I1
sV\u8ddd
p5092
I2
sV\u6c5c
p5093
I2
sV\u97e1
p5094
I2
sV\u65ed
p5095
I2
sV\u4e70
p5096
I2
sV\u9776
p5097
I2
sV\u5278
p5098
I1
sV\u917a
p5099
I1
sV\u5c7c
p5100
I2
sV\u960b
p5101
I2
sV\u900f
p5102
I2
sV\u5915
p5103
I1
sV\u7c27
p5104
I1
sV\u9aa8
p5105
I2
sV\u59aa
p5106
I2
sV\u64ac
p5107
I2
sV\u8935
p5108
I1
sV\u5e3b
p5109
I1
sV\u7cbc
p5110
I1
sV\u6b49
p5111
I2
sV\u89ca
p5112
I2
sV\u7f51
p5113
I2
sV\u7955
p5114
I2
sV\u8457
p5115
I1
sV\u5761
p5116
I1
sV\u75e2
p5117
I2
sV\u5165
p5118
I2
sV\u7fe6
p5119
I2
sV\u5b69
p5120
I1
sV\u84ec
p5121
I1
sV\u606f
p5122
I1
sV\u88f4
p5123
I1
sV\u7e7b
p5124
I1
sV\u51fa
p5125
I1
sV\u8681
p5126
I2
sV\u6700
p5127
I2
sV\u8a89
p5128
I2
sV\u578b
p5129
I1
sV\u9e91
p5130
I1
sV\u5b93
p5131
I2
sV\u8616
p5132
I2
sV\u9e26
p5133
I1
sV\u87ab
p5134
I2
sV\u622e
p5135
I2
sV\u8bb3
p5136
I2
sV\u6c32
p5137
I1
sV\u8740
p5138
I1
sV\u63c3
p5139
I2
sV\u6dc7
p5140
I1
sV\u954c
p5141
I1
sV\u9f50
p5142
I1
sV\u7bd3
p5143
I2
sV\u9954
p5144
I1
sV\u8cdd
p5145
I1
sV\u53e3
p5146
I2
sV\u7164
p5147
I1
sV\u5de7
p5148
I2
sV\u64ed
p5149
I2
sV\u826e
p5150
I2
sV\u68f5
p5151
I1
sV\u9676
p5152
I1
sV\u5378
p5153
I2
sV\u5d7c
p5154
I2
sV\u9a7e
p5155
I2
sV\u8303
p5156
I2
sV\u6e86
p5157
I2
sV\u540d
p5158
I1
sV\u910f
p5159
I2
sV\u5e11
p5160
I2
sV\u9b13
p5161
I2
sV\u7c92
p5162
I2
sV\u5815
p5163
I2
sV\u8398
p5164
I1
sV\u691f
p5165
I1
sV\u97a0
p5166
I1
sV\u7d27
p5167
I2
sV\u5ea6
p5168
I2
sV\u8e31
p5169
I1
sV\u69b4
p5170
I1
sV\u6641
p5171
I1
sV\u84c2
p5172
I1
sV\u7855
p5173
I2
sV\u59d4
p5174
I2
sV\u60da
p5175
I1
sV\u895f
p5176
I1
sV\u74e2
p5177
I1
sV\u5065
p5178
I2
sV\u7ee6
p5179
I1
sV\u8ff0
p5180
I2
sV\u8981
p5181
I2
sV\u6800
p5182
I1
sV\u8f85
p5183
I2
sV\u5e8f
p5184
I2
sV\u9191
p5185
I2
sV\u5820
p5186
I2
sV\u9126
p5187
I2
sV\u5428
p5188
I1
sV\u88ab
p5189
I2
sV\u8eaf
p5190
I1
sV\u6d2e
p5191
I1
sV\u6332
p5192
I1
sV\u9ab7
p5193
I1
sV\u90bb
p5194
I1
sV\u7f3a
p5195
I1
sV\u8840
p5196
I2
sV\u8e44
p5197
I1
sV\u78cb
p5198
I1
sV\u7ecf
p5199
I1
sV\u5d4e
p5200
I1
sV\u9050
p5201
I1
sV\u5352
p5202
I1
sV\u9654
p5203
I1
sV\u5ce3
p5204
I1
sV\u9976
p5205
I1
sV\u73fd
p5206
I2
sV\u8c03
p5207
I2
sV\u6b82
p5208
I1
sV\u6a17
p5209
I1
sV\u601b
p5210
I1
sV\u829c
p5211
I1
sV\u661f
p5212
I1
sV\u98a0
p5213
I1
sV\u5ba2
p5214
I2
sV\u8131
p5215
I1
sV\u60b0
p5216
I1
sV\u66b4
p5217
I2
sV\u72bc
p5218
I2
sV\u563f
p5219
I1
sV\u8bc2
p5220
I2
sV\u4ec4
p5221
I2
sV\u81c6
p5222
I2
sV\u6549
p5223
I2
sV\u87ca
p5224
I1
sV\u5acc
p5225
I1
sV\u7a77
p5226
I1
sV\u8881
p5227
I1
sV\u8e85
p5228
I1
sV\u8489
p5229
I2
sV\u9091
p5230
I2
sV\u6c99
p5231
I1
sV\u78a1
p5232
I1
sV\u7ea5
p5233
I1
sV\u9026
p5234
I2
sV\u962a
p5235
I2
sV\u8548
p5236
I2
sV\u79cb
p5237
I1
sV\u5c4e
p5238
I2
sV\u7960
p5239
I1
sV\u9ee5
p5240
I1
sV\u7f64
p5241
I1
sV\u94e9
p5242
I1
sV\u8c6e
p5243
I1
sV\u8272
p5244
I2
sV\u66f5
p5245
I2
sV\u9876
p5246
I2
sV\u9e7a
p5247
I1
sV\u8307
p5248
I1
sS'<pad>'
p5249
I0
sV\u7292
p5250
I2
sV\u4e9a
p5251
I2
sV\u671f
p5252
I1
sV\u4f2f
p5253
I1
sV\u6841
p5254
I1
sV\u4fc4
p5255
I1
sV\u80c6
p5256
I2
sV\u86ca
p5257
I2
sV\u5bcc
p5258
I2
sV\u57d4
p5259
I2
sV\u6eda
p5260
I2
sV\u64de
p5261
I2
sV\u70e6
p5262
I1
sV\u696b
p5263
I1
sV\u76ea
p5264
I2
sV\u8bec
p5265
I1
sV\u58f6
p5266
I1
sV\u5efa
p5267
I2
sV\u777f
p5268
I2
sV\u8d85
p5269
I1
sV\u998d
p5270
I1
sV\u780c
p5271
I2
sV\u5c8f
p5272
I1
sV\u4e18
p5273
I1
sV\u619d
p5274
I2
sV\u7ba1
p5275
I2
sV\u5c24
p5276
I1
sV\u77a9
p5277
I2
sV\u51bd
p5278
I2
sV\u94bf
p5279
I2
sV\u60c7
p5280
I1
sV\u7acb
p5281
I2
sV\u5152
p5282
I1
sV\u8fd9
p5283
I2
sV\u6e58
p5284
I1
sV\u50e7
p5285
I1
sV\u97e9
p5286
I1
sV\u8f6e
p5287
I1
sV\u5e78
p5288
I2
sV\u6982
p5289
I2
sV\u8007
p5290
I2
sV\u590d
p5291
I2
sV\u7f8e
p5292
I2
sV\u9613
p5293
I2
sV\u6817
p5294
I2
sV\u621b
p5295
I1
sV\u9aa0
p5296
I1
sV\u9ca4
p5297
I2
sV\u53a6
p5298
I2
sV\u892d
p5299
I2
sV\u8331
p5300
I1
sV\u7eb8
p5301
I2
sV\u523b
p5302
I2
sV\u70bc
p5303
I2
sV\u89c2
p5304
I1
sV\u6d45
p5305
I2
sV\u6749
p5306
I1
sV\u8857
p5307
I1
sV\u6bd6
p5308
I2
sV\u4f59
p5309
I1
sV\u825b
p5310
I1
sV\u67de
p5311
I2
sV\u9e63
p5312
I1
sV\u4fee
p5313
I1
sV\u6b00
p5314
I1
sV\u4f83
p5315
I2
sV\u8c85
p5316
I1
sV\u6d04
p5317
I1
sV\u6708
p5318
I2
sV\u5b8b
p5319
I2
sV\u988d
p5320
I2
sV\u5793
p5321
I1
sV\u7514
p5322
I1
sV\u4f18
p5323
I1
sV\u8c1a
p5324
I2
sV\u609d
p5325
I1
sV\u7ca5
p5326
I1
sV\u5d24
p5327
I1
sV\u5728
p5328
I2
sV\u8bab
p5329
I2
sV\u87b3
p5330
I1
sV\u7c3a
p5331
I2
sV\u8b40
p5332
I2
sV\u8d44
p5333
I1
sV\u8748
p5334
I1
sV\u6f58
p5335
I1
sV\u80dd
p5336
I1
sV\u7b60
p5337
I1
sV\u96e9
p5338
I1
sV\u7768
p5339
I2
sV\u62f1
p5340
I2
sV\u9a76
p5341
I2
sV\u70fd
p5342
I1
sV\u517c
p5343
I1
sV\u6286
p5344
I2
sV\u5211
p5345
I1
sV\u9713
p5346
I1
sV\u7092
p5347
I2
sV\u5415
p5348
I2
sV\u8f98
p5349
I2
sV\u631b
p5350
I1
sV\u819c
p5351
I1
sV\u7f23
p5352
I1
sV\u58a2
p5353
I1
sV\u54aa
p5354
I1
sV\u8231
p5355
I1
sV\u5937
p5356
I1
sV\u7fb8
p5357
I1
sV\u533b
p5358
I1
sV\u88c2
p5359
I2
sV\u84ca
p5360
I2
sV\u9ece
p5361
I1
sV\u7251
p5362
I1
sV\u7455
p5363
I1
sV\u55d4
p5364
I1
sV\u4e59
p5365
I2
sV\u835b
p5366
I1
sV\u6cda
p5367
I2
sV\u5c65
p5368
I2
sV\u5669
p5369
I2
sV\u83f0
p5370
I1
sV\u6773
p5371
I2
sV\u7977
p5372
I2
sV\u757f
p5373
I1
sV\u56fe
p5374
I1
sV\u8d81
p5375
I2
sV\u7410
p5376
I2
sV\u679d
p5377
I1
sV\u9526
p5378
I2
sV\u59b9
p5379
I2
sV\u94bb
p5380
I1
sV\u7b3a
p5381
I1
sV\u68c3
p5382
I1
sV\u8a44
p5383
I1
sV\u594e
p5384
I1
sV\u9450
p5385
I1
sV\u4ed7
p5386
I2
sV\u896e
p5387
I1
sV\u65f1
p5388
I2
sV\u567c
p5389
I1
sV\u917e
p5390
I1
sV\u8803
p5391
I2
sV\u638a
p5392
I1
sV\u7792
p5393
I1
sV\u5315
p5394
I2
sV\u6e17
p5395
I2
sV\u621f
p5396
I2
sV\u9ca0
p5397
I2
sV\u9aa4
p5398
I2
sV\u64b0
p5399
I2
sV\u8335
p5400
I1
sV\u5e37
p5401
I1
sV\u543b
p5402
I2
sV\u6d41
p5403
I1
sV\u8fc2
p5404
I1
sV\u83ca
p5405
I1
sV\u7f4d
p5406
I1
sV\u845b
p5407
I1
sV\u6bda
p5408
I1
sV\u825f
p5409
I1
sV\u5b65
p5410
I1
sV\u9667
p5411
I2
sV\u73ea
p5412
I1
sV\u6073
p5413
I2
sV\u82f4
p5414
I1
sV\u5bfa
p5415
I2
sV\u8089
p5416
I2
sV\u6108
p5417
I2
sV\uff0c
p5418
I3
sV\u5b8f
p5419
I1
sV\u8c16
p5420
I1
sV\u8a1a
p5421
I1
sV\u669d
p5422
I1
sV\u9e22
p5423
I1
sV\u7aa5
p5424
I1
sV\u8dab
p5425
I1
sV\u4ead
p5426
I1
sV\u8baf
p5427
I2
sV\u81b3
p5428
I2
sV\u8d40
p5429
I1
sV\u69c3
p5430
I1
sV\u4e42
p5431
I2
sV\u9550
p5432
I2
sV\u4fd7
p5433
I1
sV\u88d9
p5434
I1
sV\u675c
p5435
I2
sV\u59e3
p5436
I1
sV\u7168
p5437
I1
sV\u886e
p5438
I2
sV\u78f9
p5439
I1
sV\u5978
p5440
I1
sV\u9a7a
p5441
I1
sV\u577c
p5442
I2
sV\u8707
p5443
I1
sV\u628a
p5444
I2
sV\u788e
p5445
I2
sV\u5411
p5446
I2
sV\u631f
p5447
I1
sV\u54a6
p5448
I1
sV\u91a8
p5449
I1
sV\u52aa
p5450
I2
sV\u6fac
p5451
I1
sV\u8431
p5452
I1
sV\u65b0
p5453
I1
sV\u8235
p5454
I2
sV\u963d
p5455
I2
sV\u533f
p5456
I2
sV\u6c41
p5457
I1
sV\u5fcc
p5458
I2
sV\u98ce
p5459
I1
sV\u55d0
p5460
I2
sV\u96d2
p5461
I2
sV\u53d4
p5462
I1
sV\u6cd6
p5463
I2
sV\u835f
p5464
I2
sV\u5c61
p5465
I2
sV\u7ee2
p5466
I2
sV\u74e6
p5467
I2
sV\u99f8
p5468
I1
sV\u50fe
p5469
I2
sV\u8389
p5470
I2
sV\u6208
p5471
I1
sV\u5e8b
p5472
I2
sV\u7c0c
p5473
I2
sV\u9791
p5474
I1
sV\u891a
p5475
I2
sV\u659d
p5476
I2
sV\u7fa1
p5477
I2
sV\u5824
p5478
I1
sV\u73a9
p5479
I1
sV\u5228
p5480
I1
sV\u8eab
p5481
I1
sV\u88af
p5482
I1
sV\u82b3
p5483
I1
sV\u7f36
p5484
I2
sV\u5bb9
p5485
I1
sV\u793a
p5486
I2
sV\u733e
p5487
I1
sV\u8e40
p5488
I1
sV\u7ecb
p5489
I1
sV\u9650
p5490
I2
sV\u8bd9
p5491
I1
sV\u6a58
p5492
I1
sV\u5ae3
p5493
I1
sV\u67f1
p5494
I2
sV\u61f5
p5495
I2
sV\u997a
p5496
I2
sV\u547c
p5497
I1
sV\u4f01
p5498
I2
sV\u6d82
p5499
I1
sV\u8407
p5500
I1
sV\u7b8e
p5501
I1
sV\u849c
p5502
I2
sV\u98a4
p5503
I2
sV\u57a6
p5504
I2
sV\u4e2b
p5505
I1
sV\u8d2d
p5506
I2
sV\u60b4
p5507
I2
sV\u563b
p5508
I1
sV\u4ec0
p5509
I1
sV\u8dc2
p5510
I1
sV\u87c6
p5511
I1
sV\u6349
p5512
I1
sV\u81ca
p5513
I1
sV\u69da
p5514
I2
sV\u5965
p5515
I2
sV\u6e6b
p5516
I2
sV\u86f0
p5517
I1
sV\u6273
p5518
I1
sV\u767b
p5519
I1
sV\u707f
p5520
I2
sV\u8e81
p5521
I2
sV\u8885
p5522
I2
sV\u6308
p5523
I2
sV\u5f8b
p5524
I2
sV\u9c8d
p5525
I2
sV\u5393
p5526
I1
sV\u9095
p5527
I1
sV\u821e
p5528
I2
sV\u7ea1
p5529
I1
sV\u5f20
p5530
I1
sV\u5924
p5531
I1
sV\u8fab
p5532
I2
sV\u83b3
p5533
I1
sV\u783a
p5534
I2
sV\u54bd
p5535
I2
sV\u91bf
p5536
I1
sV\u8944
p5537
I1
sV\u8348
p5538
I2
sV\u73d3
p5539
I2
sV\u84dd
p5540
I1
sV\u7af9
p5541
I1
sV\u987a
p5542
I2
sV\u557c
p5543
I1
sV\u4e01
p5544
I1
sV\u6c82
p5545
I1
sV\u9f0b
p5546
I1
sV\u5015
p5547
I1
sV\u6d17
p5548
I2
sV\u671b
p5549
I2
sV\u859c
p5550
I2
sV\u611f
p5551
I2
sV\u4f2b
p5552
I2
sV\u8c2d
p5553
I1
sV\u67b0
p5554
I1
sV\u7bb8
p5555
I2
sV\u573b
p5556
I1
sV\u75bc
p5557
I1
sV\u513f
p5558
I1
sV\u6249
p5559
I1
sV\u7c4d
p5560
I1
sV\u8d57
p5561
I2
sV\u68da
p5562
I1
sV\u5e61
p5563
I1
sV\u5269
p5564
I2
sV\u8dec
p5565
I2
sV\u696f
p5566
I2
sV\u81f4
p5567
I2
sV\u5ef6
p5568
I1
sV\u95fc
p5569
I2
sV\u52fe
p5570
I1
sV\u9181
p5571
I2
sV\u9785
p5572
I1
sV\u620c
p5573
I1
sV\u8f95
p5574
I1
sV\u6e14
p5575
I1
sV\u5a1c
p5576
I2
sV\u67a5
p5577
I2
sV\u6da9
p5578
I2
sV\u5fb5
p5579
I1
sV\u82b7
p5580
I2
sV\u673a
p5581
I1
sV\u6d3e
p5582
I2
sV\u9644
p5583
I2
sV\u60cb
p5584
I2
sV\u6cd3
p5585
I1
sV\u87e5
p5586
I1
sV\u6664
p5587
I2
sV\u6c68
p5588
I2
sV\u73ed
p5589
I1
sV\u956e
p5590
I1
sV\u5e74
p5591
I1
sV\u5101
p5592
I2
sV\u800b
p5593
I1
sV\u7f8a
p5594
I1
sV\u8c13
p5595
I2
sV\u6b92
p5596
I2
sV\u4f15
p5597
I1
sV\u9a9c
p5598
I2
sV\u80a0
p5599
I1
sV\u86a4
p5600
I2
sV\u4faa
p5601
I1
sV\u72ac
p5602
I2
sV\u78b0
p5603
I2
sV\u634d
p5604
I2
sV\u8bd2
p5605
I1
sV\u6f55
p5606
I2
sV\u4ed4
p5607
I2
sV\u5b5d
p5608
I2
sV\u8463
p5609
I2
sV\u706b
p5610
I2
sV\u766f
p5611
I1
sV\u7c73
p5612
I2
sV\u6e7f
p5613
I1
sV\u5583
p5614
I1
sV\u9685
p5615
I1
sV\u7704
p5616
I2
sV\u5b87
p5617
I2
sV\u828d
p5618
I1
sV\u6f14
p5619
I2
sV\u9016
p5620
I2
sV\u961a
p5621
I2
sV\u7a9d
p5622
I1
sV\u8e2a
p5623
I1
sV\u52ad
p5624
I2
sV\u742e
p5625
I1
sV\u5eb5
p5626
I1
sV\u83b7
p5627
I2
sV\u6c3e
p5628
I2
sV\u5242
p5629
I2
sV\u7bc7
p5630
I1
sV\u61cb
p5631
I2
sV\u67cf
p5632
I2
sV\u53d7
p5633
I2
sV\u94d9
p5634
I1
sV\u7b5c
p5635
I1
sV\u80e1
p5636
I1
sV\u72ed
p5637
I1
sV\u536c
p5638
I1
sV\u7ef5
p5639
I1
sV\u5f74
p5640
I1
sV\u867a
p5641
I1
sV\u9503
p5642
I2
sV\u7282
p5643
I1
sV\u5c09
p5644
I2
sV\u4e15
p5645
I1
sV\u7317
p5646
I1
sV\u7f1f
p5647
I2
sV\u6b27
p5648
I1
sV\u572f
p5649
I1
sV\u51c0
p5650
I2
sV\u624d
p5651
I1
sV\u6851
p5652
I1
sV\u5459
p5653
I1
sV\u8563
p5654
I2
sV\u62e2
p5655
I2
sV\u6eea
p5656
I2
sV\u54ee
p5657
I1
sV\u6377
p5658
I1
sV\u8bfc
p5659
I1
sV\u9f89
p5660
I2
sV\u6c14
p5661
I2
sV\u5618
p5662
I1
sV\u63a1
p5663
I2
sV\u65a5
p5664
I2
sV\u8b26
p5665
I2
sV\u8d2a
p5666
I1
sV\u772e
p5667
I1
sV\u9eb3
p5668
I1
sV\u6f3e
p5669
I2
sV\u9e48
p5670
I1
sV\u804c
p5671
I1
sV\u6ed3
p5672
I2
sV\u5adb
p5673
I1
sV\u83e1
p5674
I2
sV\u8fe9
p5675
I2
sV\u506c
p5676
I2
sV\u7bf1
p5677
I1
sV\u9972
p5678
I2
sV\u5c74
p5679
I2
sV\u67f9
p5680
I2
sV\u69fd
p5681
I1
sV\u8f7e
p5682
I2
sV\u9603
p5683
I2
sV\u840f
p5684
I2
sV\u9698
p5685
I2
sV\u989c
p5686
I1
sV\u7c1f
p5687
I2
sV\u522b
p5688
I1
sV\u70ac
p5689
I2
sV\u542f
p5690
I2
sV\u7545
p5691
I2
sV\u54c4
p5692
I1
sV\u89d2
p5693
I2
sV\u6d55
p5694
I2
sV\u9057
p5695
I1
sV\u4f69
p5696
I2
sV\u86f8
p5697
I1
sV\u88fc
p5698
I2
sV\u4ffe
p5699
I2
sV\u3002
p5700
I3
sV\u7504
p5701
I1
sV\u5987
p5702
I2
sV\u7f08
p5703
I2
sV\u7699
p5704
I1
sV\u591c
p5705
I2
sV\u62a1
p5706
I1
sV\u8c2a
p5707
I1
sV\u50ad
p5708
I1
sV\u5cb5
p5709
I2
sV\u643a
p5710
I1
sV\u8dbf
p5711
I1
sV\u5a46
p5712
I1
sV\u5c4a
p5713
I2
sV\u65cf
p5714
I1
sV\u8d54
p5715
I1
sV\u795c
p5716
I2
sV\u82e1
p5717
I2
sV\u70ed
p5718
I2
sV\u516c
p5719
I1
sV\u5b70
p5720
I1
sV\u7cf5
p5721
I2
sV\u66f9
p5722
I1
sV\u847a
p5723
I2
sV\u5201
p5724
I1
sV\u8f13
p5725
I2
sV\u9798
p5726
I2
sV\u7b1b
p5727
I1
sV\u549a
p5728
I1
sV\u5e9e
p5729
I1
sV\u83a0
p5730
I2
sV\u85a4
p5731
I2
sV\u8fa8
p5732
I2
sV\u902d
p5733
I2
sV\u71ac
p5734
I1
sV\u552f
p5735
I1
sV\u67b8
p5736
I2
sV\u69bc
p5737
I1
sV\u7241
p5738
I1
sV\u55c4
p5739
I1
sV\u9cca
p5740
I1
sV\u604d
p5741
I2
sV\u6a51
p5742
I2
sV\u88d2
p5743
I1
sV\u72d6
p5744
I2
sV\u8763
p5745
I1
sV\u6cea
p5746
I2
sV\u7f73
p5747
I1
sV\u6177
p5748
I1
sV\u6b7b
p5749
I2
sV\u5e87
p5750
I2
sV\u878d
p5751
I1
sV\u660c
p5752
I1
sV\u6c10
p5753
I1
sV\u7199
p5754
I1
sV\u5018
p5755
I2
sV\u7f9d
p5756
I1
sV\u5e1c
p5757
I2
sV\u65a1
p5758
I2
sV\u63a5
p5759
I1
sV\u8d26
p5760
I2
sV\u7f32
p5761
I1
sV\u5bb5
p5762
I1
sV\u6536
p5763
I1
sV\u633a
p5764
I2
sV\u5742
p5765
I2
sV\u7ec7
p5766
I1
sV\u62cf
p5767
I1
sV\u6868
p5768
I2
sV\u77ed
p5769
I2
sV\u566c
p5770
I2
sV\u5a74
p5771
I1
sV\u9003
p5772
I1
sV\u5305
p5773
I1
sV\u840b
p5774
I1
sV\u7b8a
p5775
I1
sV\u618e
p5776
I1
sV\u7617
p5777
I2
sV\u539a
p5778
I2
sV\u88a8
p5779
I2
sV\u542b
p5780
I1
sV\u972d
p5781
I2
sV\u60b8
p5782
I2
sV\u54c0
p5783
I1
sV\u7949
p5784
I2
sV\u58c8
p5785
I2
sV\u6d51
p5786
I1
sV\u5f5d
p5787
I1
sV\u67e2
p5788
I2
sV\u726f
p5789
I2
sV\u6677
p5790
I2
sV\u80f8
p5791
I1
sV\u5f87
p5792
I2
sV\u9889
p5793
I1
sV\u7099
p5794
I2
sV\u62a5
p5795
I2
sV\u8c26
p5796
I1
sV\u56ad
p5797
I2
sV\u5cb1
p5798
I2
sV\u5ab5
p5799
I2
sV\u623a
p5800
I2
sV\u8bbf
p5801
I2
sV\u683e
p5802
I1
sV\u9540
p5803
I2
sV\u71c3
p5804
I1
sV\u65cb
p5805
I1
sV\u874c
p5806
I1
sV\u63cf
p5807
I1
sV\u8d50
p5808
I2
sV\u9edd
p5809
I2
sV\u5bdf
p5810
I1
sV\u82e5
p5811
I2
sV\u906e
p5812
I1
sV\u60f9
p5813
I2
sV\u827a
p5814
I2
sV\u4f7c
p5815
I2
sV\u887e
p5816
I1
sV\u5401
p5817
I1
sV\u7682
p5818
I2
sV\u830f
p5819
I1
sV\u8913
p5820
I2
sV\u529a
p5821
I2
sV\u589e
p5822
I1
sV\u77ac
p5823
I2
sV\u7bb4
p5824
I1
sV\u8e3d
p5825
I2
sV\u6fbc
p5826
I2
sV\u7441
p5827
I2
sV\u7849
p5828
I2
sV\u80ce
p5829
I1
sV\u74d6
p5830
I1
sV\u8f67
p5831
I2
sV\u97ec
p5832
I1
sV\u736f
p5833
I1
sV\u50ee
p5834
I1
sV\u6777
p5835
I1
sV\u9185
p5836
I1
sV\u8f91
p5837
I1
sV\u6e10
p5838
I2
sV\u9716
p5839
I1
sV\u5218
p5840
I1
sV\u892a
p5841
I2
sV\u90af
p5842
I1
sV\u732e
p5843
I2
sV\u6b3e
p5844
I2
sV\u9640
p5845
I1
sV\u9044
p5846
I1
sV\u8e50
p5847
I1
sV\u8854
p5848
I1
sV\u54d7
p5849
I1
sV\u5edb
p5850
I1
sV\u6064
p5851
I2
sV\u8be9
p5852
I2
sV\u7ff1
p5853
I1
sV\u5e70
p5854
I2
sV\u8776
p5855
I1
sV\u817a
p5856
I2
sV\u7f86
p5857
I1
sV\u5b09
p5858
I1
sV\u860b
p5859
I1
sV\u798a
p5860
I2
sV\u4f11
p5861
I1
sV\u9c9c
p5862
I1
sV\u5b9e
p5863
I1
sV\u80a4
p5864
I1
sV\u7eb0
p5865
I1
sV\u8339
p5866
I1
sV\u4e3b
p5867
I2
sV\u8d3d
p5868
I2
sV\u6cbc
p5869
I2
sV\u7741
p5870
I1
sV\u7b49
p5871
I2
sV\u99ca
p5872
I2
sV\u5d5d
p5873
I2
sV\u8263
p5874
I2
sV\u65e2
p5875
I2
sV\u706f
p5876
I1
sV\u53ee
p5877
I1
sV\u5df2
p5878
I2
sV\u9085
p5879
I1
sV\u7b08
p5880
I1
sV\u9616
p5881
I1
sV\u901a
p5882
I1
sV\u7c9d
p5883
I2
sV\u8e26
p5884
I2
sV\u91af
p5885
I1
sV\u6636
p5886
I2
sV\u6a3e
p5887
I2
sV\u9b48
p5888
I1
sV\u6bd3
p5889
I2
sV\u9cdd
p5890
I2
sV\u7d5c
p5891
I1
sV\u6760
p5892
I1
sV\u80e5
p5893
I1
sV\u5f70
p5894
I1
sV\u78f5
p5895
I2
sV\u5974
p5896
I1
sV\u6cfd
p5897
I1
sV\u5601
p5898
I1
sV\u5005
p5899
I2
sV\u5a09
p5900
I1
sV\u810f
p5901
I2
sV\u4e11
p5902
I2
sV\u7f1b
p5903
I2
sV\u6323
p5904
I1
sV\u6d27
p5905
I2
sV\u4ea6
p5906
I2
sV\u8ba8
p5907
I2
sV\u9e31
p5908
I1
sV\u8239
p5909
I1
sV\u8c3d
p5910
I1
sV\u51c4
p5911
I1
sV\u7a49
p5912
I2
sV\u82ce
p5913
I2
sV\u6e51
p5914
I1
sV\u4fd0
p5915
I2
sV\u9557
p5916
I1
sV\u76d6
p5917
I2
sV\u7ade
p5918
I2
sV\u8363
p5919
I1
sV\u64e2
p5920
I1
sV\u776b
p5921
I1
sV\u6577
p5922
I1
sV\u83f8
p5923
I1
sV\u8dfc
p5924
I1
sV\u9981
p5925
I2
sV\u7800
p5926
I2
sV\u4e8f
p5927
I1
sV\u6614
p5928
I1
sV\u5c18
p5929
I1
sV\u9f1a
p5930
I1
sV\u6fa5
p5931
I2
sV\u4e24
p5932
I2
sV\u65a9
p5933
I2
sV\u9eaf
p5934
I1
sV\u51b1
p5935
I2
sV\u94b3
p5936
I1
sV\u653e
p5937
I2
sV\u9e44
p5938
I2
sV\u5146
p5939
I2
sV\u68cb
p5940
I1
sV\u574a
p5941
I1
sV\u6ecf
p5942
I2
sV\u8654
p5943
I1
sV\u50db
p5944
I1
sV\u8fe5
p5945
I2
sV\u85e9
p5946
I1
sV\u6df9
p5947
I1
sV\u8f7a
p5948
I1
sV\u63fd
p5949
I2
sV\u857e
p5950
I2
sV\u8e0f
p5951
I2
sV\u6d8e
p5952
I1
sV\u6392
p5953
I1
sV\u7a17
p5954
I2
sV\u5996
p5955
I1
sV\u701b
p5956
I1
sV\u761f
p5957
I1
sV\u84a8
p5958
I2
sV\u9131
p5959
I1
sV\u76b4
p5960
I1
sV\u8d39
p5961
I2
sV\u6cb8
p5962
I2
sV\u62bc
p5963
I1
sV\u7941
p5964
I1
sV\u9bc2
p5965
I1
sV\u7f45
p5966
I2
sV\u54c8
p5967
I1
sV\u8dce
p5968
I1
sV\u6151
p5969
I2
sV\u6755
p5970
I2
sV\u7fda
p5971
I1
sV\u965f
p5972
I2
sV\u75de
p5973
I2
sV\u61e6
p5974
I2
sV\u5dee
p5975
I2
sV\u53f2
p5976
I2
sV\u607b
p5977
I2
sV\u4ffa
p5978
I2
sV\u9881
p5979
I1
sV\u7f04
p5980
I1
sV\u9489
p5981
I1
sV\u4f8f
p5982
I1
sV\u8695
p5983
I1
sV\u6714
p5984
I2
sV\u9816
p5985
I2
sV\u6ea5
p5986
I2
sV\u4f24
p5987
I1
sV\u8026
p5988
I2
sV\u64a9
p5989
I1
sV\u862a
p5990
I1
sV\u5aad
p5991
I1
sV\u56b5
p5992
I1
sV\u8bb7
p5993
I2
sV\u81bb
p5994
I1
sV\u6e3a
p5995
I2
sV\u9548
p5996
I1
sV\u8150
p5997
I2
sV\u9cd9
p5998
I1
sV\u51db
p5999
I2
sV\u57df
p6000
I2
sV\u6960
p6001
I1
sV\u7aed
p6002
I1
sV\u5170
p6003
I1
sV\u62fd
p6004
I1
sV\u9d03
p6005
I1
sV\u5e05
p6006
I2
sV\u5409
p6007
I1
sV\u8f0f
p6008
I1
sV\u8513
p6009
I2
sV\u6292
p6010
I1
sV\u5e9a
p6011
I1
sV\u771f
p6012
I1
sV\u592b
p6013
I1
sV\u7bac
p6014
I2
sV\u5f2f
p6015
I1
sV\u5533
p6016
I2
sV\u9635
p6017
I2
sV\u6db8
p6018
I1
sV\u96ca
p6019
I2
sV\u82d2
p6020
I2
sV\u6655
p6021
I1
sV\u5c59
p6022
I1
sV\u7eda
p6023
I2
sV\u74de
p6024
I1
sV\u8d63
p6025
I2
sV\u8367
p6026
I1
sV\u60e6
p6027
I2
sV\u7f6f
p6028
I2
sV\u8df8
p6029
I2
sV\u83fc
p6030
I2
sV\u677f
p6031
I2
sV\u7a00
p6032
I1
sV\u6210
p6033
I1
sV\u6414
p6034
I1
sV\u5e18
p6035
I1
sV\u501c
p6036
I2
sV\u971e
p6037
I1
sV\u6ba1
p6038
I2
sV\u7f2e
p6039
I2
sV\u96b3
p6040
I1
sV\u88b7
p6041
I1
sV\u84bf
p6042
I1
sV\u7ec3
p6043
I2
sV\u5942
p6044
I2
sV\u9648
p6045
I1
sV\u884c
p6046
I1
sV\u4f4e
p6047
I1
sV\u8be1
p6048
I2
sV\u4ee3
p6049
I2
sV\u6c64
p6050
I1
sV\u6668
p6051
I1
sV\u79ed
p6052
I2
sV\u9172
p6053
I1
sV\u9e03
p6054
I1
sV\u5709
p6055
I2
sV\u8c0f
p6056
I2
sV\u6f8e
p6057
I1
sV\u579e
p6058
I1
sV\u6e23
p6059
I1
sV\u6027
p6060
I2
sV\u86a8
p6061
I1
sV\u992d
p6062
I1
sV\u72b0
p6063
I1
sV\u9535
p6064
I1
sV\u60bc
p6065
I2
sV\u5cc4
p6066
I2
sV\u8fce
p6067
I1
sV\u6555
p6068
I2
sV\u9857
p6069
I2
sV\u77de
p6070
I2
sV\u6877
p6071
I1
sV\u9a81
p6072
I1
sV\u7708
p6073
I1
sV\u888d
p6074
I1
sV\u5f18
p6075
I1
sV\u8822
p6076
I2
sV\u6ca5
p6077
I2
sV\u52b1
p6078
I2
sV\u97b3
p6079
I2
sV\u4eb9
p6080
I2
sV\u663e
p6081
I2
sV\u5842
p6082
I2
sV\u6bcb
p6083
I1
sV\u544a
p6084
I2
sV\u4e4e
p6085
I1
sV\u8350
p6086
I2
sV\u67d3
p6087
I2
sV\u7f58
p6088
I1
sV\u53db
p6089
I2
sV\u90dd
p6090
I2
sV\u715c
p6091
I2
sV\u55df
p6092
I1
sV\u6b60
p6093
I2
sV\u86e9
p6094
I1
sV\u6768
p6095
I1
sV\u72f1
p6096
I2
sV\u5370
p6097
I2
sV\u6ef9
p6098
I1
sV\u8c7a
p6099
I1
sV\u867e
p6100
I1
sV\u5a01
p6101
I1
sV\u5609
p6102
I1
sV\u8713
p6103
I1
sV\u731b
p6104
I2
sV\u5c9a
p6105
I1
sV\u919c
p6106
I2
sV\u751f
p6107
I1
sV\u6127
p6108
I2
sV\u73b0
p6109
I2
sV\u75b4
p6110
I1
sV\u803d
p6111
I1
sV\u5bc0
p6112
I2
sV\u6251
p6113
I1
sV\u7ad6
p6114
I2
sV\u505d
p6115
I2
sV\u955f
p6116
I2
sV\u62e6
p6117
I1
sV\u64ea
p6118
I2
sV\u95f4
p6119
I1
sV\u6977
p6120
I2
sV\u8ff8
p6121
I2
sV\u637b
p6122
I2
sV\u81fc
p6123
I2
sV\u5883
p6124
I2
sV\u9189
p6125
I2
sV\u8f8d
p6126
I2
sV\u6e0c
p6127
I2
sV\u911e
p6128
I1
sV\u6da1
p6129
I1
sV\u61a9
p6130
I2
sV\u9cab
p6131
I2
sV\u5fad
p6132
I1
sV\u84bb
p6133
I2
sV\u6b3a
p6134
I1
sV\u5546
p6135
I1
sV\u534a
p6136
I2
sV\u8450
p6137
I1
sV\u6c60
p6138
I1
sV\u8be5
p6139
I1
sV\u6068
p6140
I2
sV\u996e
p6141
I2
sV\u8d76
p6142
I2
sV\u67fd
p6143
I1
sV\u817e
p6144
I1
sV\u9607
p6145
I1
sV\u7586
p6146
I1
sV\u8c0b
p6147
I1
sV\u4f0d
p6148
I2
sV\u7e17
p6149
I1
sV\u9898
p6150
I1
sV\u741b
p6151
I1
sV\u5b9a
p6152
I2
sV\u969c
p6153
I2
sV\u6627
p6154
I2
sV\u7eac
p6155
I2
sV\u9531
p6156
I1
sV\u5ac4
p6157
I1
sV\u93ca
p6158
I2
sV\u6f4d
p6159
I1
sV\u89ce
p6160
I1
sV\u6551
p6161
I2
sV\u87d2
p6162
I2
sV\u6355
p6163
I2
sV\u9e57
p6164
I2
sV\u7bda
p6165
I2
sV\u575d
p6166
I2
sV\u8863
p6167
I1
sV\u65e6
p6168
I2
sV\u63ea
p6169
I1
sV\u59ee
p6170
I1
sV\u94f0
p6171
I2
sV\u88f8
p6172
I2
sV\u627f
p6173
I1
sV\u9c81
p6174
I2
sV\u5983
p6175
I1
sV\u9a85
p6176
I1
sV\u7b04
p6177
I1
sV\u8e8d
p6178
I2
sV\u571c
p6179
I1
sV\u901e
p6180
I2
sV\u6ca1
p6181
I1
sV\u8e22
p6182
I1
sV\u6aa5
p6183
I2
sV\u8426
p6184
I1
sV\u822a
p6185
I1
sV\u5ead
p6186
I1
sV\u54b1
p6187
I1
sV\u79c3
p6188
I1
sV\u5e42
p6189
I2
sV\u9b44
p6190
I2
sV\u5446
p6191
I1
sV\u6dcb
p6192
I1
sV\u524a
p6193
I1
sV\u6bcf
p6194
I2
sV\u8354
p6195
I2
sV\u5fd7
p6196
I2
sV\u98d9
p6197
I1
sV\u53df
p6198
I2
sV\u6b64
p6199
I2
sV\u6168
p6200
I2
sV\u7eed
p6201
I2
sV\u5f6c
p6202
I1
sV\u9672
p6203
I1
sV\u72f5
p6204
I1
sV\u5374
p6205
I2
sV\u68f9
p6206
I2
sV\u5c01
p6207
I1
sV\u7e82
p6208
I2
sV\u5a05
p6209
I2
sV\u9707
p6210
I2
sV\u7486
p6211
I1
sV\u728a
p6212
I1
sV\u4e0d
p6213
I2
sV\u7f17
p6214
I1
sV\u5c96
p6215
I1
sV\u5a9a
p6216
I2
sV\u4ea2
p6217
I2
sV\u8ba4
p6218
I2
sV\u9e2d
p6219
I1
sV\u5133
p6220
I1
sV\u8839
p6221
I2
sV\u69b8
p6222
I1
sV\u7c41
p6223
I2
sV\u5bc4
p6224
I2
sV\u6e4d
p6225
I1
sV\u7cd6
p6226
I1
sV\u955b
p6227
I1
sV\u6ee2
p6228
I1
sV\u64e6
p6229
I1
sV\u58ee
p6230
I2
sV\u95f0
p6231
I2
sV\u657b
p6232
I2
sV\u9f81
p6233
I1
sV\u9985
p6234
I2
sV\u4e8b
p6235
I2
sV\u5a18
p6236
I1
sV\u6fa1
p6237
I2
sV\u8d22
p6238
I1
sV\u63a9
p6239
I2
sV\u7b2e
p6240
I1
sV\u7532
p6241
I2
sV\u51b5
p6242
I2
sV\u80bf
p6243
I2
sV\u5d42
p6244
I2
sV\u6ecb
p6245
I1
sV\u8c4c
p6246
I1
sV\u8650
p6247
I2
sV\u62d3
p6248
I2
sV\u8054
p6249
I1
sV\u56db
p6250
I2
sV\u745c
p6251
I1
sV\u89e5
p6252
I1
sV\u6864
p6253
I1
sV\u83e9
p6254
I1
sV\u9b6e
p6255
I1
sV\u77f1
p6256
I1
sV\u5670
p6257
I1
sV\u8f76
p6258
I2
sV\u5f01
p6259
I2
sV\u7786
p6260
I2
sV\u718a
p6261
I1
sV\u6592
p6262
I1
sV\u9a98
p6263
I2
sV\u949c
p6264
I2
sV\u88a4
p6265
I2
sV\u5233
p6266
I1
sV\u853d
p6267
I2
sV\u64bc
p6268
I2
sV\u91ca
p6269
I2
sV\u6d4d
p6270
I2
sV\u6751
p6271
I1
sV\u6155
p6272
I2
sV\u5b59
p6273
I1
sV\u965b
p6274
I2
sV\u73de
p6275
I2
sV\u5bee
p6276
I1
sV\u90f4
p6277
I1
sV\u4ff6
p6278
I2
sV\u667b
p6279
I2
sV\u84fc
p6280
I2
sV\u7f00
p6281
I2
sV\u5b83
p6282
I1
sV\u9885
p6283
I1
sV\u5587
p6284
I2
sV\u4f8b
p6285
I2
sV\u6710
p6286
I1
sV\u6114
p6287
I1
sV\u4f20
p6288
I1
sV\u8c22
p6289
I2
sV\u5cad
p6290
I2
sV\u56b1
p6291
I2
sV\u683a
p6292
I2
sV\u623e
p6293
I2
sV\u5c42
p6294
I1
sV\u75c7
p6295
I2
sV\u8d4c
p6296
I2
sV\u8154
p6297
I1
sV\u755c
p6298
I2
sV\u5d6c
p6299
I1
sV\u9a6e
p6300
I1
sV\u76f1
p6301
I1
sV\u5770
p6302
I1
sV\u5174
p6303
I2
sV\u8e76
p6304
I1
sV\u827e
p6305
I2
sV\u5e01
p6306
I2
sV\u9b03
p6307
I1
sV\u7686
p6308
I1
sV\u708a
p6309
I1
sV\u6492
p6310
I1
sV\u5e96
p6311
I1
sV\u529e
p6312
I2
sV\u6b23
p6313
I1
sV\u592f
p6314
I1
sV\u9631
p6315
I2
sV\u77b0
p6316
I2
sV\u9035
p6317
I1
sV\u843d
p6318
I2
sV\u65bc
p6319
I1
sV\u7e41
p6320
I1
sV\u7845
p6321
I1
sV\u96c6
p6322
I1
sV\u53c8
p6323
I2
sV\u90ca
p6324
I1
sV\u6c4d
p6325
I1
sV\u6055
p6326
I2
sV\u7ed6
p6327
I1
sV\u72de
p6328
I1
sV\u4e61
p6329
I1
sV\u6ce2
p6330
I1
sV\u66e6
p6331
I1
sV\u796f
p6332
I1
sV\u54f2
p6333
I1
sV\u6d77
p6334
I2
sV\u4ef6
p6335
I2
sV\u8bf8
p6336
I1
s.